---
triple:          'x86_64-apple-darwin'
binary-path:     '/Users/Daniel/Documents/Code/BlackJack_cpp/test'
relocations:
  - { offsetInCU: 0x8A6E, offset: 0x8A6E, size: 0x8, addend: 0x0, symName: __ZNSt3__124__put_character_sequenceB7v160006IcNS_11char_traitsIcEEEERNS_13basic_ostreamIT_T0_EES7_PKS4_m, symObjAddr: 0x1830, symBinAddr: 0x100004940, symSize: 0x1F0 }
  - { offsetInCU: 0x98F2, offset: 0x98F2, size: 0x8, addend: 0x0, symName: __ZNSt3__17advanceB7v160006IPKP6PlayermmvEEvRT_T0_, symObjAddr: 0x24B0, symBinAddr: 0x1000055C0, symSize: 0x50 }
  - { offsetInCU: 0xA914, offset: 0xA914, size: 0x8, addend: 0x0, symName: __ZNSt3__1lsB7v160006INS_11char_traitsIcEEEERNS_13basic_ostreamIcT_EES6_PKc, symObjAddr: 0x1F0, symBinAddr: 0x100003300, symSize: 0x40 }
  - { offsetInCU: 0xA95A, offset: 0xA95A, size: 0x8, addend: 0x0, symName: __ZNSt3__1neB7v160006IPP6PlayerEEbRKNS_11__wrap_iterIT_EES8_, symObjAddr: 0x570, symBinAddr: 0x100003680, symSize: 0x30 }
  - { offsetInCU: 0xA99D, offset: 0xA99D, size: 0x8, addend: 0x0, symName: __ZNSt3__1plB7v160006IcNS_11char_traitsIcEENS_9allocatorIcEEEENS_12basic_stringIT_T0_T1_EEOS9_PKS6_, symObjAddr: 0x5C0, symBinAddr: 0x1000036D0, symSize: 0x50 }
  - { offsetInCU: 0xA9F5, offset: 0xA9F5, size: 0x8, addend: 0x0, symName: __ZNSt3__118__debug_db_erase_cB7v160006INS_6vectorI4CardNS_9allocatorIS2_EEEEEEvPT_, symObjAddr: 0x8C0, symBinAddr: 0x1000039D0, symSize: 0x10 }
  - { offsetInCU: 0xAA26, offset: 0xAA26, size: 0x8, addend: 0x0, symName: __ZNSt3__112__to_addressB7v160006I4CardEEPT_S3_, symObjAddr: 0x9F0, symBinAddr: 0x100003B00, symSize: 0x10 }
  - { offsetInCU: 0xAA5B, offset: 0xAA5B, size: 0x8, addend: 0x0, symName: __ZNSt3__118__debug_db_erase_cB7v160006INS_6vectorINS_12basic_stringIcNS_11char_traitsIcEENS_9allocatorIcEEEENS5_IS7_EEEEEEvPT_, symObjAddr: 0xD50, symBinAddr: 0x100003E60, symSize: 0x10 }
  - { offsetInCU: 0xAA8C, offset: 0xAA8C, size: 0x8, addend: 0x0, symName: __ZNSt3__112__to_addressB7v160006INS_12basic_stringIcNS_11char_traitsIcEENS_9allocatorIcEEEEEEPT_S8_, symObjAddr: 0xE80, symBinAddr: 0x100003F90, symSize: 0x10 }
  - { offsetInCU: 0xAAC1, offset: 0xAAC1, size: 0x8, addend: 0x0, symName: __ZNSt3__119__libcpp_deallocateB7v160006EPvmm, symObjAddr: 0xFB0, symBinAddr: 0x1000040C0, symSize: 0x60 }
  - { offsetInCU: 0xAB26, offset: 0xAB26, size: 0x8, addend: 0x0, symName: __ZNSt3__124__is_overaligned_for_newB7v160006Em, symObjAddr: 0x1010, symBinAddr: 0x100004120, symSize: 0x20 }
  - { offsetInCU: 0xAB54, offset: 0xAB54, size: 0x8, addend: 0x0, symName: __ZNSt3__127__do_deallocate_handle_sizeB7v160006IJSt11align_val_tEEEvPvmDpT_, symObjAddr: 0x1030, symBinAddr: 0x100004140, symSize: 0x30 }
  - { offsetInCU: 0xABA7, offset: 0xABA7, size: 0x8, addend: 0x0, symName: __ZNSt3__127__do_deallocate_handle_sizeB7v160006IJEEEvPvmDpT_, symObjAddr: 0x1060, symBinAddr: 0x100004170, symSize: 0x20 }
  - { offsetInCU: 0xABE5, offset: 0xABE5, size: 0x8, addend: 0x0, symName: __ZNSt3__124__libcpp_operator_deleteB7v160006IJPvSt11align_val_tEEEvDpT_, symObjAddr: 0x1080, symBinAddr: 0x100004190, symSize: 0x30 }
  - { offsetInCU: 0xAC2E, offset: 0xAC2E, size: 0x8, addend: 0x0, symName: __ZNSt3__124__libcpp_operator_deleteB7v160006IJPvEEEvDpT_, symObjAddr: 0x10B0, symBinAddr: 0x1000041C0, symSize: 0x20 }
  - { offsetInCU: 0xAC63, offset: 0xAC63, size: 0x8, addend: 0x0, symName: __ZNSt3__1eqB7v160006IPP6PlayerEEbRKNS_11__wrap_iterIT_EES8_, symObjAddr: 0x1210, symBinAddr: 0x100004320, symSize: 0x40 }
  - { offsetInCU: 0xACA6, offset: 0xACA6, size: 0x8, addend: 0x0, symName: __ZNSt3__119__debug_db_insert_cB7v160006INS_6vectorIP6PlayerNS_9allocatorIS3_EEEEEEvPT_, symObjAddr: 0x1300, symBinAddr: 0x100004410, symSize: 0x10 }
  - { offsetInCU: 0xACD7, offset: 0xACD7, size: 0x8, addend: 0x0, symName: __ZNSt3__118__debug_db_erase_cB7v160006INS_6vectorIP6PlayerNS_9allocatorIS3_EEEEEEvPT_, symObjAddr: 0x1590, symBinAddr: 0x1000046A0, symSize: 0x10 }
  - { offsetInCU: 0xAD08, offset: 0xAD08, size: 0x8, addend: 0x0, symName: __ZNSt3__112__to_addressB7v160006IP6PlayerEEPT_S4_, symObjAddr: 0x16A0, symBinAddr: 0x1000047B0, symSize: 0x10 }
  - { offsetInCU: 0xAD3D, offset: 0xAD3D, size: 0x8, addend: 0x0, symName: __ZNSt3__116__pad_and_outputB7v160006IcNS_11char_traitsIcEEEENS_19ostreambuf_iteratorIT_T0_EES6_PKS4_S8_S8_RNS_8ios_baseES4_, symObjAddr: 0x1A70, symBinAddr: 0x100004B80, symSize: 0x220 }
  - { offsetInCU: 0xAE0D, offset: 0xAE0D, size: 0x8, addend: 0x0, symName: __ZNSt3__119__debug_db_insert_cB7v160006INS_12basic_stringIcNS_11char_traitsIcEENS_9allocatorIcEEEEEEvPT_, symObjAddr: 0x1F00, symBinAddr: 0x100005010, symSize: 0x10 }
  - { offsetInCU: 0xAE3E, offset: 0xAE3E, size: 0x8, addend: 0x0, symName: __ZNSt3__112__to_addressB7v160006IcEEPT_S2_, symObjAddr: 0x1FA0, symBinAddr: 0x1000050B0, symSize: 0x10 }
  - { offsetInCU: 0xAEA6, offset: 0xAEA6, size: 0x8, addend: 0x0, symName: __ZNSt3__19use_facetB7v160006INS_5ctypeIcEEEERKT_RKNS_6localeE, symObjAddr: 0x2230, symBinAddr: 0x100005340, symSize: 0x30 }
  - { offsetInCU: 0xB375, offset: 0xB375, size: 0x8, addend: 0x0, symName: __ZNSt3__118__constexpr_strlenB7v160006EPKc, symObjAddr: 0x22C0, symBinAddr: 0x1000053D0, symSize: 0x20 }
  - { offsetInCU: 0xB3A1, offset: 0xB3A1, size: 0x8, addend: 0x0, symName: __ZNSt3__18distanceB7v160006IPKP6PlayerEENS_15iterator_traitsIT_E15difference_typeES6_S6_, symObjAddr: 0x2480, symBinAddr: 0x100005590, symSize: 0x30 }
  - { offsetInCU: 0xB3E4, offset: 0xB3E4, size: 0x8, addend: 0x0, symName: __ZNSt3__14copyB7v160006IPKP6PlayerPS2_EET0_T_S7_S6_, symObjAddr: 0x2500, symBinAddr: 0x100005610, symSize: 0x40 }
  - { offsetInCU: 0xB43E, offset: 0xB43E, size: 0x8, addend: 0x0, symName: __ZNSt3__125__debug_db_invalidate_allB7v160006INS_6vectorIP6PlayerNS_9allocatorIS3_EEEEEEvPT_, symObjAddr: 0x27F0, symBinAddr: 0x100005900, symSize: 0x10 }
  - { offsetInCU: 0xB46F, offset: 0xB46F, size: 0x8, addend: 0x0, symName: __ZNSt3__110__distanceB7v160006IPKP6PlayerEENS_15iterator_traitsIT_E15difference_typeES6_S6_NS_26random_access_iterator_tagE, symObjAddr: 0x2800, symBinAddr: 0x100005910, symSize: 0x20 }
  - { offsetInCU: 0xB4BC, offset: 0xB4BC, size: 0x8, addend: 0x0, symName: __ZNSt3__121__convert_to_integralB7v160006Em, symObjAddr: 0x2820, symBinAddr: 0x100005930, symSize: 0x10 }
  - { offsetInCU: 0xB4E8, offset: 0xB4E8, size: 0x8, addend: 0x0, symName: __ZNSt3__19__advanceB7v160006IPKP6PlayerEEvRT_NS_15iterator_traitsIS5_E15difference_typeENS_26random_access_iterator_tagE, symObjAddr: 0x2830, symBinAddr: 0x100005940, symSize: 0x20 }
  - { offsetInCU: 0xB531, offset: 0xB531, size: 0x8, addend: 0x0, symName: __ZNSt3__16__copyB7v160006INS_17_ClassicAlgPolicyEPKP6PlayerS5_PS3_EENS_4pairIT0_T2_EES8_T1_S9_, symObjAddr: 0x2850, symBinAddr: 0x100005960, symSize: 0x40 }
  - { offsetInCU: 0xB59D, offset: 0xB59D, size: 0x8, addend: 0x0, symName: __ZNSt3__123__dispatch_copy_or_moveB7v160006INS_17_ClassicAlgPolicyENS_11__copy_loopIS1_EENS_14__copy_trivialEPKP6PlayerS8_PS6_EENS_4pairIT2_T4_EESB_T3_SC_, symObjAddr: 0x2890, symBinAddr: 0x1000059A0, symSize: 0x40 }
  - { offsetInCU: 0xB61B, offset: 0xB61B, size: 0x8, addend: 0x0, symName: __ZNSt3__121__unwrap_and_dispatchB7v160006INS_10__overloadINS_11__copy_loopINS_17_ClassicAlgPolicyEEENS_14__copy_trivialEEEPKP6PlayerSA_PS8_Li0EEENS_4pairIT0_T2_EESD_T1_SE_, symObjAddr: 0x28D0, symBinAddr: 0x1000059E0, symSize: 0xB0 }
  - { offsetInCU: 0xB6AA, offset: 0xB6AA, size: 0x8, addend: 0x0, symName: __ZNSt3__114__unwrap_rangeB7v160006IPKP6PlayerS4_EENS_4pairIT0_S6_EET_S8_, symObjAddr: 0x2980, symBinAddr: 0x100005A90, symSize: 0x50 }
  - { offsetInCU: 0xB83F, offset: 0xB83F, size: 0x8, addend: 0x0, symName: __ZNSt3__113__unwrap_iterB7v160006IPP6PlayerNS_18__unwrap_iter_implIS3_Lb1EEELi0EEEDTclsrT0_8__unwrapclsr3stdE7declvalIT_EEEES7_, symObjAddr: 0x2A10, symBinAddr: 0x100005B20, symSize: 0x20 }
  - { offsetInCU: 0xB883, offset: 0xB883, size: 0x8, addend: 0x0, symName: __ZNSt3__19make_pairB7v160006IPKP6PlayerPS2_EENS_4pairINS_18__unwrap_ref_decayIT_E4typeENS7_IT0_E4typeEEEOS8_OSB_, symObjAddr: 0x2A30, symBinAddr: 0x100005B40, symSize: 0x30 }
  - { offsetInCU: 0xB8D2, offset: 0xB8D2, size: 0x8, addend: 0x0, symName: __ZNSt3__114__rewrap_rangeB7v160006IPKP6PlayerS4_EET_S5_T0_, symObjAddr: 0x2A60, symBinAddr: 0x100005B70, symSize: 0x30 }
  - { offsetInCU: 0xB91E, offset: 0xB91E, size: 0x8, addend: 0x0, symName: __ZNSt3__113__rewrap_iterB7v160006IPP6PlayerS3_NS_18__unwrap_iter_implIS3_Lb1EEEEET_S6_T0_, symObjAddr: 0x2A90, symBinAddr: 0x100005BA0, symSize: 0x40 }
  - { offsetInCU: 0xB973, offset: 0xB973, size: 0x8, addend: 0x0, symName: __ZNSt3__19make_pairB7v160006IPKP6PlayerS4_EENS_4pairINS_18__unwrap_ref_decayIT_E4typeENS6_IT0_E4typeEEEOS7_OSA_, symObjAddr: 0x2AD0, symBinAddr: 0x100005BE0, symSize: 0x30 }
  - { offsetInCU: 0xB9C2, offset: 0xB9C2, size: 0x8, addend: 0x0, symName: __ZNSt3__113__unwrap_iterB7v160006IPKP6PlayerNS_18__unwrap_iter_implIS4_Lb1EEELi0EEEDTclsrT0_8__unwrapclsr3stdE7declvalIT_EEEES8_, symObjAddr: 0x2B00, symBinAddr: 0x100005C10, symSize: 0x20 }
  - { offsetInCU: 0xBB2D, offset: 0xBB2D, size: 0x8, addend: 0x0, symName: __ZNSt3__112__to_addressB7v160006IKP6PlayerEEPT_S5_, symObjAddr: 0x2BA0, symBinAddr: 0x100005CB0, symSize: 0x10 }
  - { offsetInCU: 0xBB62, offset: 0xBB62, size: 0x8, addend: 0x0, symName: __ZNSt3__119__copy_trivial_implB7v160006IKP6PlayerS2_EENS_4pairIPT_PT0_EES6_S6_S8_, symObjAddr: 0x2BB0, symBinAddr: 0x100005CC0, symSize: 0x70 }
  - { offsetInCU: 0xBBCA, offset: 0xBBCA, size: 0x8, addend: 0x0, symName: __ZNSt3__19make_pairB7v160006IRPKP6PlayerPS2_EENS_4pairINS_18__unwrap_ref_decayIT_E4typeENS8_IT0_E4typeEEEOS9_OSC_, symObjAddr: 0x2C20, symBinAddr: 0x100005D30, symSize: 0x30 }
  - { offsetInCU: 0xBC6C, offset: 0xBC6C, size: 0x8, addend: 0x0, symName: __ZNSt3__113__rewrap_iterB7v160006IPKP6PlayerS4_NS_18__unwrap_iter_implIS4_Lb1EEEEET_S7_T0_, symObjAddr: 0x2D30, symBinAddr: 0x100005E40, symSize: 0x40 }
  - { offsetInCU: 0xBCC1, offset: 0xBCC1, size: 0x8, addend: 0x0, symName: __ZNSt3__130__uninitialized_allocator_copyB7v160006INS_9allocatorIP6PlayerEES3_S3_LPv0EEEPT0_RT_PKS6_SB_S7_, symObjAddr: 0x2E40, symBinAddr: 0x100005F50, symSize: 0x30 }
  - { offsetInCU: 0xBD39, offset: 0xBD39, size: 0x8, addend: 0x0, symName: __ZNSt3__119__allocate_at_leastB7v160006INS_9allocatorIP6PlayerEEEENS_19__allocation_resultINS_16allocator_traitsIT_E7pointerEEERS7_m, symObjAddr: 0x30C0, symBinAddr: 0x1000061D0, symSize: 0x40 }
  - { offsetInCU: 0xBD7C, offset: 0xBD7C, size: 0x8, addend: 0x0, symName: __ZNSt3__13minB7v160006ImEERKT_S3_S3_, symObjAddr: 0x31B0, symBinAddr: 0x1000062C0, symSize: 0x30 }
  - { offsetInCU: 0xBFA9, offset: 0xBFA9, size: 0x8, addend: 0x0, symName: __ZNSt3__13minB7v160006ImNS_6__lessImmEEEERKT_S5_S5_T0_, symObjAddr: 0x3230, symBinAddr: 0x100006340, symSize: 0x50 }
  - { offsetInCU: 0xC03E, offset: 0xC03E, size: 0x8, addend: 0x0, symName: __ZNSt3__120__throw_length_errorB7v160006EPKc, symObjAddr: 0x3310, symBinAddr: 0x100006420, symSize: 0x70 }
  - { offsetInCU: 0xC066, offset: 0xC066, size: 0x8, addend: 0x0, symName: __ZNSt3__117__libcpp_allocateB7v160006Emm, symObjAddr: 0x3480, symBinAddr: 0x100006590, symSize: 0x60 }
  - { offsetInCU: 0xC0C0, offset: 0xC0C0, size: 0x8, addend: 0x0, symName: __ZNSt3__121__libcpp_operator_newB7v160006IJmSt11align_val_tEEEPvDpT_, symObjAddr: 0x34E0, symBinAddr: 0x1000065F0, symSize: 0x30 }
  - { offsetInCU: 0xC10D, offset: 0xC10D, size: 0x8, addend: 0x0, symName: __ZNSt3__121__libcpp_operator_newB7v160006IJmEEEPvDpT_, symObjAddr: 0x3510, symBinAddr: 0x100006620, symSize: 0x20 }
  - { offsetInCU: 0xC146, offset: 0xC146, size: 0x8, addend: 0x0, symName: __ZNSt3__13maxB7v160006ImEERKT_S3_S3_, symObjAddr: 0x3530, symBinAddr: 0x100006640, symSize: 0x30 }
  - { offsetInCU: 0xC189, offset: 0xC189, size: 0x8, addend: 0x0, symName: __ZNSt3__13maxB7v160006ImNS_6__lessImmEEEERKT_S5_S5_T0_, symObjAddr: 0x3560, symBinAddr: 0x100006670, symSize: 0x50 }
  - { offsetInCU: 0xC1E3, offset: 0xC1E3, size: 0x8, addend: 0x0, symName: __ZNSt3__142__uninitialized_allocator_move_if_noexceptB7v160006INS_9allocatorIP6PlayerEENS_16reverse_iteratorIPS3_EES7_S3_vEET1_RT_T0_SB_S8_, symObjAddr: 0x3AF0, symBinAddr: 0x100006C00, symSize: 0x70 }
  - { offsetInCU: 0xC25F, offset: 0xC25F, size: 0x8, addend: 0x0, symName: __ZNSt3__14swapB7v160006IPP6PlayerEENS_9enable_ifIXaasr21is_move_constructibleIT_EE5valuesr18is_move_assignableIS5_EE5valueEvE4typeERS5_S8_, symObjAddr: 0x3BB0, symBinAddr: 0x100006CC0, symSize: 0x40 }
  - { offsetInCU: 0xC2B0, offset: 0xC2B0, size: 0x8, addend: 0x0, symName: __ZNSt3__14moveB7v160006INS_16reverse_iteratorIPP6PlayerEES5_EET0_T_S7_S6_, symObjAddr: 0x3BF0, symBinAddr: 0x100006D00, symSize: 0x80 }
  - { offsetInCU: 0xC30A, offset: 0xC30A, size: 0x8, addend: 0x0, symName: __ZNSt3__16__moveB7v160006INS_17_ClassicAlgPolicyENS_16reverse_iteratorIPP6PlayerEES6_S6_EENS_4pairIT0_T2_EES8_T1_S9_, symObjAddr: 0x3C70, symBinAddr: 0x100006D80, symSize: 0x90 }
  - { offsetInCU: 0xC376, offset: 0xC376, size: 0x8, addend: 0x0, symName: __ZNSt3__123__dispatch_copy_or_moveB7v160006INS_17_ClassicAlgPolicyENS_11__move_loopIS1_EENS_14__move_trivialENS_16reverse_iteratorIPP6PlayerEES9_S9_EENS_4pairIT2_T4_EESB_T3_SC_, symObjAddr: 0x3D00, symBinAddr: 0x100006E10, symSize: 0x90 }
  - { offsetInCU: 0xC3F4, offset: 0xC3F4, size: 0x8, addend: 0x0, symName: __ZNSt3__121__unwrap_and_dispatchB7v160006INS_10__overloadINS_11__move_loopINS_17_ClassicAlgPolicyEEENS_14__move_trivialEEENS_16reverse_iteratorIPP6PlayerEESB_SB_Li0EEENS_4pairIT0_T2_EESD_T1_SE_, symObjAddr: 0x3D90, symBinAddr: 0x100006EA0, symSize: 0x210 }
  - { offsetInCU: 0xC483, offset: 0xC483, size: 0x8, addend: 0x0, symName: __ZNSt3__114__unwrap_rangeB7v160006INS_16reverse_iteratorIPP6PlayerEES5_EENS_4pairIT0_S7_EET_S9_, symObjAddr: 0x3FA0, symBinAddr: 0x1000070B0, symSize: 0x90 }
  - { offsetInCU: 0xC5FE, offset: 0xC5FE, size: 0x8, addend: 0x0, symName: __ZNSt3__113__unwrap_iterB7v160006INS_16reverse_iteratorIPP6PlayerEENS_18__unwrap_iter_implIS5_Lb0EEELi0EEEDTclsrT0_8__unwrapclsr3stdE7declvalIT_EEEES9_, symObjAddr: 0x40D0, symBinAddr: 0x1000071E0, symSize: 0x40 }
  - { offsetInCU: 0xC642, offset: 0xC642, size: 0x8, addend: 0x0, symName: __ZNSt3__19make_pairB7v160006INS_16reverse_iteratorIPP6PlayerEES5_EENS_4pairINS_18__unwrap_ref_decayIT_E4typeENS7_IT0_E4typeEEEOS8_OSB_, symObjAddr: 0x4110, symBinAddr: 0x100007220, symSize: 0x30 }
  - { offsetInCU: 0xC691, offset: 0xC691, size: 0x8, addend: 0x0, symName: __ZNSt3__114__rewrap_rangeB7v160006INS_16reverse_iteratorIPP6PlayerEES5_EET_S6_T0_, symObjAddr: 0x4140, symBinAddr: 0x100007250, symSize: 0x60 }
  - { offsetInCU: 0xC6DD, offset: 0xC6DD, size: 0x8, addend: 0x0, symName: __ZNSt3__113__rewrap_iterB7v160006INS_16reverse_iteratorIPP6PlayerEES5_NS_18__unwrap_iter_implIS5_Lb0EEEEET_S8_T0_, symObjAddr: 0x41A0, symBinAddr: 0x1000072B0, symSize: 0x70 }
  - { offsetInCU: 0xC732, offset: 0xC732, size: 0x8, addend: 0x0, symName: __ZNSt3__1neB7v160006IPP6PlayerS3_EEbRKNS_16reverse_iteratorIT_EERKNS4_IT0_EE, symObjAddr: 0x4210, symBinAddr: 0x100007320, symSize: 0x40 }
  - { offsetInCU: 0xC830, offset: 0xC830, size: 0x8, addend: 0x0, symName: __ZNSt3__115__debug_db_swapB7v160006INS_12basic_stringIcNS_11char_traitsIcEENS_9allocatorIcEEEEEEvPT_S8_, symObjAddr: 0x4750, symBinAddr: 0x100007860, symSize: 0x10 }
  - { offsetInCU: 0xC86F, offset: 0xC86F, size: 0x8, addend: 0x0, symName: __ZNSt3__112__to_addressB7v160006IKcEEPT_S3_, symObjAddr: 0x4830, symBinAddr: 0x100007940, symSize: 0x10 }
  - { offsetInCU: 0xCC43, offset: 0xCC43, size: 0x8, addend: 0x0, symName: __ZSt28__throw_bad_array_new_lengthB7v160006v, symObjAddr: 0x3440, symBinAddr: 0x100006550, symSize: 0x40 }
  - { offsetInCU: 0xDA66, offset: 0xDA66, size: 0x8, addend: 0x0, symName: __ZNSt3__16vectorIP6PlayerNS_9allocatorIS2_EEE26__swap_out_circular_bufferERNS_14__split_bufferIS2_RS4_EE, symObjAddr: 0x37A0, symBinAddr: 0x1000068B0, symSize: 0x130 }
  - { offsetInCU: 0xFE52, offset: 0xFE52, size: 0x8, addend: 0x0, symName: __ZN9BlackJackC2Ev, symObjAddr: 0x0, symBinAddr: 0x100003110, symSize: 0x1D0 }
  - { offsetInCU: 0xFE99, offset: 0xFE99, size: 0x8, addend: 0x0, symName: __ZNSt3__16vectorIP6PlayerNS_9allocatorIS2_EEEC1B7v160006Ev, symObjAddr: 0x1D0, symBinAddr: 0x1000032E0, symSize: 0x20 }
  - { offsetInCU: 0xFEC2, offset: 0xFEC2, size: 0x8, addend: 0x0, symName: __ZNSt16initializer_listIP6PlayerEC1B7v160006Ev, symObjAddr: 0x230, symBinAddr: 0x100003340, symSize: 0x20 }
  - { offsetInCU: 0xFEEB, offset: 0xFEEB, size: 0x8, addend: 0x0, symName: __ZNSt3__16vectorIP6PlayerNS_9allocatorIS2_EEEaSB7v160006ESt16initializer_listIS2_E, symObjAddr: 0x250, symBinAddr: 0x100003360, symSize: 0x50 }
  - { offsetInCU: 0xFF1F, offset: 0xFF1F, size: 0x8, addend: 0x0, symName: __ZNSt3__16vectorIP6PlayerNS_9allocatorIS2_EEE9push_backB7v160006EOS2_, symObjAddr: 0x2A0, symBinAddr: 0x1000033B0, symSize: 0x60 }
  - { offsetInCU: 0xFF54, offset: 0xFF54, size: 0x8, addend: 0x0, symName: __ZN4DeckD1Ev, symObjAddr: 0x300, symBinAddr: 0x100003410, symSize: 0x20 }
  - { offsetInCU: 0xFF7F, offset: 0xFF7F, size: 0x8, addend: 0x0, symName: __ZNSt3__16vectorIP6PlayerNS_9allocatorIS2_EEED1B7v160006Ev, symObjAddr: 0x320, symBinAddr: 0x100003430, symSize: 0x20 }
  - { offsetInCU: 0xFFA8, offset: 0xFFA8, size: 0x8, addend: 0x0, symName: __ZN9BlackJackC1Ev, symObjAddr: 0x340, symBinAddr: 0x100003450, symSize: 0x20 }
  - { offsetInCU: 0xFFD3, offset: 0xFFD3, size: 0x8, addend: 0x0, symName: __ZN9BlackJack4playEv, symObjAddr: 0x360, symBinAddr: 0x100003470, symSize: 0x10 }
  - { offsetInCU: 0xFFFA, offset: 0xFFFA, size: 0x8, addend: 0x0, symName: __ZN9BlackJack14getPlayerNamesEv, symObjAddr: 0x370, symBinAddr: 0x100003480, symSize: 0x170 }
  - { offsetInCU: 0x1007E, offset: 0x1007E, size: 0x8, addend: 0x0, symName: __ZNSt3__112basic_stringIcNS_11char_traitsIcEENS_9allocatorIcEEEC1B7v160006IDnEEPKc, symObjAddr: 0x4E0, symBinAddr: 0x1000035F0, symSize: 0x30 }
  - { offsetInCU: 0x100BB, offset: 0x100BB, size: 0x8, addend: 0x0, symName: __ZNSt3__16vectorIP6PlayerNS_9allocatorIS2_EEE5beginB7v160006Ev, symObjAddr: 0x510, symBinAddr: 0x100003620, symSize: 0x30 }
  - { offsetInCU: 0x100E1, offset: 0x100E1, size: 0x8, addend: 0x0, symName: __ZNSt3__16vectorIP6PlayerNS_9allocatorIS2_EEE3endB7v160006Ev, symObjAddr: 0x540, symBinAddr: 0x100003650, symSize: 0x30 }
  - { offsetInCU: 0x10107, offset: 0x10107, size: 0x8, addend: 0x0, symName: __ZNKSt3__111__wrap_iterIPP6PlayerEdeB7v160006Ev, symObjAddr: 0x5A0, symBinAddr: 0x1000036B0, symSize: 0x20 }
  - { offsetInCU: 0x1012C, offset: 0x1012C, size: 0x8, addend: 0x0, symName: __ZNSt3__112basic_stringIcNS_11char_traitsIcEENS_9allocatorIcEEEpLB7v160006ERKS5_, symObjAddr: 0x610, symBinAddr: 0x100003720, symSize: 0x30 }
  - { offsetInCU: 0x10160, offset: 0x10160, size: 0x8, addend: 0x0, symName: __ZNSt3__111__wrap_iterIPP6PlayerEppB7v160006Ev, symObjAddr: 0x640, symBinAddr: 0x100003750, symSize: 0x20 }
  - { offsetInCU: 0x10185, offset: 0x10185, size: 0x8, addend: 0x0, symName: __ZNSt16initializer_listIP6PlayerEC2B7v160006Ev, symObjAddr: 0x660, symBinAddr: 0x100003770, symSize: 0x20 }
  - { offsetInCU: 0x101AE, offset: 0x101AE, size: 0x8, addend: 0x0, symName: __ZN4DeckD2Ev, symObjAddr: 0x680, symBinAddr: 0x100003790, symSize: 0x30 }
  - { offsetInCU: 0x101D9, offset: 0x101D9, size: 0x8, addend: 0x0, symName: __ZNSt3__16vectorI4CardNS_9allocatorIS1_EEED1B7v160006Ev, symObjAddr: 0x6B0, symBinAddr: 0x1000037C0, symSize: 0x20 }
  - { offsetInCU: 0x10202, offset: 0x10202, size: 0x8, addend: 0x0, symName: __ZNSt3__16vectorI4CardNS_9allocatorIS1_EEED2B7v160006Ev, symObjAddr: 0x6D0, symBinAddr: 0x1000037E0, symSize: 0x40 }
  - { offsetInCU: 0x1022B, offset: 0x1022B, size: 0x8, addend: 0x0, symName: __ZNSt3__16vectorI4CardNS_9allocatorIS1_EEE16__destroy_vectorC1ERS4_, symObjAddr: 0x710, symBinAddr: 0x100003820, symSize: 0x30 }
  - { offsetInCU: 0x10263, offset: 0x10263, size: 0x8, addend: 0x0, symName: __ZNSt3__16vectorI4CardNS_9allocatorIS1_EEE16__destroy_vectorclB7v160006Ev, symObjAddr: 0x750, symBinAddr: 0x100003860, symSize: 0x90 }
  - { offsetInCU: 0x10288, offset: 0x10288, size: 0x8, addend: 0x0, symName: __ZNSt3__16vectorI4CardNS_9allocatorIS1_EEE16__destroy_vectorC2ERS4_, symObjAddr: 0x7E0, symBinAddr: 0x1000038F0, symSize: 0x20 }
  - { offsetInCU: 0x102C0, offset: 0x102C0, size: 0x8, addend: 0x0, symName: __ZNKSt3__16vectorI4CardNS_9allocatorIS1_EEE17__annotate_deleteB7v160006Ev, symObjAddr: 0x800, symBinAddr: 0x100003910, symSize: 0xC0 }
  - { offsetInCU: 0x102E5, offset: 0x102E5, size: 0x8, addend: 0x0, symName: __ZNSt3__16vectorI4CardNS_9allocatorIS1_EEE7__clearB7v160006Ev, symObjAddr: 0x8D0, symBinAddr: 0x1000039E0, symSize: 0x20 }
  - { offsetInCU: 0x1030A, offset: 0x1030A, size: 0x8, addend: 0x0, symName: __ZNSt3__116allocator_traitsINS_9allocatorI4CardEEE10deallocateB7v160006ERS3_PS2_m, symObjAddr: 0x8F0, symBinAddr: 0x100003A00, symSize: 0x30 }
  - { offsetInCU: 0x1034C, offset: 0x1034C, size: 0x8, addend: 0x0, symName: __ZNSt3__16vectorI4CardNS_9allocatorIS1_EEE7__allocB7v160006Ev, symObjAddr: 0x920, symBinAddr: 0x100003A30, symSize: 0x20 }
  - { offsetInCU: 0x10371, offset: 0x10371, size: 0x8, addend: 0x0, symName: __ZNKSt3__16vectorI4CardNS_9allocatorIS1_EEE8capacityB7v160006Ev, symObjAddr: 0x940, symBinAddr: 0x100003A50, symSize: 0x40 }
  - { offsetInCU: 0x10396, offset: 0x10396, size: 0x8, addend: 0x0, symName: __ZNKSt3__16vectorI4CardNS_9allocatorIS1_EEE31__annotate_contiguous_containerB7v160006EPKvS6_S6_S6_, symObjAddr: 0x980, symBinAddr: 0x100003A90, symSize: 0x20 }
  - { offsetInCU: 0x103E7, offset: 0x103E7, size: 0x8, addend: 0x0, symName: __ZNKSt3__16vectorI4CardNS_9allocatorIS1_EEE4dataB7v160006Ev, symObjAddr: 0x9A0, symBinAddr: 0x100003AB0, symSize: 0x20 }
  - { offsetInCU: 0x1040C, offset: 0x1040C, size: 0x8, addend: 0x0, symName: __ZNKSt3__16vectorI4CardNS_9allocatorIS1_EEE4sizeB7v160006Ev, symObjAddr: 0x9C0, symBinAddr: 0x100003AD0, symSize: 0x30 }
  - { offsetInCU: 0x10431, offset: 0x10431, size: 0x8, addend: 0x0, symName: __ZNSt3__16vectorI4CardNS_9allocatorIS1_EEE22__base_destruct_at_endB7v160006EPS1_, symObjAddr: 0xA00, symBinAddr: 0x100003B10, symSize: 0x80 }
  - { offsetInCU: 0x10474, offset: 0x10474, size: 0x8, addend: 0x0, symName: __ZNSt3__116allocator_traitsINS_9allocatorI4CardEEE7destroyB7v160006IS2_vEEvRS3_PT_, symObjAddr: 0xA80, symBinAddr: 0x100003B90, symSize: 0x30 }
  - { offsetInCU: 0x104B1, offset: 0x104B1, size: 0x8, addend: 0x0, symName: __ZNSt3__19allocatorI4CardE7destroyB7v160006EPS1_, symObjAddr: 0xAB0, symBinAddr: 0x100003BC0, symSize: 0x20 }
  - { offsetInCU: 0x104E4, offset: 0x104E4, size: 0x8, addend: 0x0, symName: __ZN4CardD1Ev, symObjAddr: 0xAD0, symBinAddr: 0x100003BE0, symSize: 0x20 }
  - { offsetInCU: 0x1050F, offset: 0x1050F, size: 0x8, addend: 0x0, symName: __ZN4CardD2Ev, symObjAddr: 0xAF0, symBinAddr: 0x100003C00, symSize: 0x70 }
  - { offsetInCU: 0x1053A, offset: 0x1053A, size: 0x8, addend: 0x0, symName: __ZNSt3__16vectorINS_12basic_stringIcNS_11char_traitsIcEENS_9allocatorIcEEEENS4_IS6_EEED1B7v160006Ev, symObjAddr: 0xB60, symBinAddr: 0x100003C70, symSize: 0x20 }
  - { offsetInCU: 0x10563, offset: 0x10563, size: 0x8, addend: 0x0, symName: __ZNSt3__16vectorINS_12basic_stringIcNS_11char_traitsIcEENS_9allocatorIcEEEENS4_IS6_EEED2B7v160006Ev, symObjAddr: 0xB80, symBinAddr: 0x100003C90, symSize: 0x40 }
  - { offsetInCU: 0x1058C, offset: 0x1058C, size: 0x8, addend: 0x0, symName: __ZNSt3__16vectorINS_12basic_stringIcNS_11char_traitsIcEENS_9allocatorIcEEEENS4_IS6_EEE16__destroy_vectorC1ERS8_, symObjAddr: 0xBC0, symBinAddr: 0x100003CD0, symSize: 0x30 }
  - { offsetInCU: 0x105C4, offset: 0x105C4, size: 0x8, addend: 0x0, symName: __ZNSt3__16vectorINS_12basic_stringIcNS_11char_traitsIcEENS_9allocatorIcEEEENS4_IS6_EEE16__destroy_vectorclB7v160006Ev, symObjAddr: 0xBF0, symBinAddr: 0x100003D00, symSize: 0x90 }
  - { offsetInCU: 0x105E9, offset: 0x105E9, size: 0x8, addend: 0x0, symName: __ZNSt3__16vectorINS_12basic_stringIcNS_11char_traitsIcEENS_9allocatorIcEEEENS4_IS6_EEE16__destroy_vectorC2ERS8_, symObjAddr: 0xC80, symBinAddr: 0x100003D90, symSize: 0x20 }
  - { offsetInCU: 0x10621, offset: 0x10621, size: 0x8, addend: 0x0, symName: __ZNKSt3__16vectorINS_12basic_stringIcNS_11char_traitsIcEENS_9allocatorIcEEEENS4_IS6_EEE17__annotate_deleteB7v160006Ev, symObjAddr: 0xCA0, symBinAddr: 0x100003DB0, symSize: 0xB0 }
  - { offsetInCU: 0x10646, offset: 0x10646, size: 0x8, addend: 0x0, symName: __ZNSt3__16vectorINS_12basic_stringIcNS_11char_traitsIcEENS_9allocatorIcEEEENS4_IS6_EEE7__clearB7v160006Ev, symObjAddr: 0xD60, symBinAddr: 0x100003E70, symSize: 0x20 }
  - { offsetInCU: 0x1066B, offset: 0x1066B, size: 0x8, addend: 0x0, symName: __ZNSt3__116allocator_traitsINS_9allocatorINS_12basic_stringIcNS_11char_traitsIcEENS1_IcEEEEEEE10deallocateB7v160006ERS7_PS6_m, symObjAddr: 0xD80, symBinAddr: 0x100003E90, symSize: 0x30 }
  - { offsetInCU: 0x106AD, offset: 0x106AD, size: 0x8, addend: 0x0, symName: __ZNSt3__16vectorINS_12basic_stringIcNS_11char_traitsIcEENS_9allocatorIcEEEENS4_IS6_EEE7__allocB7v160006Ev, symObjAddr: 0xDB0, symBinAddr: 0x100003EC0, symSize: 0x20 }
  - { offsetInCU: 0x106D2, offset: 0x106D2, size: 0x8, addend: 0x0, symName: __ZNKSt3__16vectorINS_12basic_stringIcNS_11char_traitsIcEENS_9allocatorIcEEEENS4_IS6_EEE8capacityB7v160006Ev, symObjAddr: 0xDD0, symBinAddr: 0x100003EE0, symSize: 0x40 }
  - { offsetInCU: 0x106F7, offset: 0x106F7, size: 0x8, addend: 0x0, symName: __ZNKSt3__16vectorINS_12basic_stringIcNS_11char_traitsIcEENS_9allocatorIcEEEENS4_IS6_EEE31__annotate_contiguous_containerB7v160006EPKvSA_SA_SA_, symObjAddr: 0xE10, symBinAddr: 0x100003F20, symSize: 0x20 }
  - { offsetInCU: 0x10748, offset: 0x10748, size: 0x8, addend: 0x0, symName: __ZNKSt3__16vectorINS_12basic_stringIcNS_11char_traitsIcEENS_9allocatorIcEEEENS4_IS6_EEE4dataB7v160006Ev, symObjAddr: 0xE30, symBinAddr: 0x100003F40, symSize: 0x20 }
  - { offsetInCU: 0x1076D, offset: 0x1076D, size: 0x8, addend: 0x0, symName: __ZNKSt3__16vectorINS_12basic_stringIcNS_11char_traitsIcEENS_9allocatorIcEEEENS4_IS6_EEE4sizeB7v160006Ev, symObjAddr: 0xE50, symBinAddr: 0x100003F60, symSize: 0x30 }
  - { offsetInCU: 0x10792, offset: 0x10792, size: 0x8, addend: 0x0, symName: __ZNSt3__16vectorINS_12basic_stringIcNS_11char_traitsIcEENS_9allocatorIcEEEENS4_IS6_EEE22__base_destruct_at_endB7v160006EPS6_, symObjAddr: 0xE90, symBinAddr: 0x100003FA0, symSize: 0x80 }
  - { offsetInCU: 0x107D5, offset: 0x107D5, size: 0x8, addend: 0x0, symName: __ZNSt3__116allocator_traitsINS_9allocatorINS_12basic_stringIcNS_11char_traitsIcEENS1_IcEEEEEEE7destroyB7v160006IS6_vEEvRS7_PT_, symObjAddr: 0xF10, symBinAddr: 0x100004020, symSize: 0x30 }
  - { offsetInCU: 0x10812, offset: 0x10812, size: 0x8, addend: 0x0, symName: __ZNSt3__19allocatorINS_12basic_stringIcNS_11char_traitsIcEENS0_IcEEEEE7destroyB7v160006EPS5_, symObjAddr: 0xF40, symBinAddr: 0x100004050, symSize: 0x20 }
  - { offsetInCU: 0x10845, offset: 0x10845, size: 0x8, addend: 0x0, symName: __ZNSt3__19allocatorINS_12basic_stringIcNS_11char_traitsIcEENS0_IcEEEEE10deallocateB7v160006EPS5_m, symObjAddr: 0xF60, symBinAddr: 0x100004070, symSize: 0x50 }
  - { offsetInCU: 0x10886, offset: 0x10886, size: 0x8, addend: 0x0, symName: __ZNSt3__117__compressed_pairIPNS_12basic_stringIcNS_11char_traitsIcEENS_9allocatorIcEEEENS4_IS6_EEE6secondB7v160006Ev, symObjAddr: 0x10D0, symBinAddr: 0x1000041E0, symSize: 0x20 }
  - { offsetInCU: 0x108AB, offset: 0x108AB, size: 0x8, addend: 0x0, symName: __ZNSt3__122__compressed_pair_elemINS_9allocatorINS_12basic_stringIcNS_11char_traitsIcEENS1_IcEEEEEELi1ELb1EE5__getB7v160006Ev, symObjAddr: 0x10F0, symBinAddr: 0x100004200, symSize: 0x10 }
  - { offsetInCU: 0x108D0, offset: 0x108D0, size: 0x8, addend: 0x0, symName: __ZNKSt3__16vectorINS_12basic_stringIcNS_11char_traitsIcEENS_9allocatorIcEEEENS4_IS6_EEE9__end_capB7v160006Ev, symObjAddr: 0x1100, symBinAddr: 0x100004210, symSize: 0x20 }
  - { offsetInCU: 0x108F5, offset: 0x108F5, size: 0x8, addend: 0x0, symName: __ZNKSt3__117__compressed_pairIPNS_12basic_stringIcNS_11char_traitsIcEENS_9allocatorIcEEEENS4_IS6_EEE5firstB7v160006Ev, symObjAddr: 0x1120, symBinAddr: 0x100004230, symSize: 0x20 }
  - { offsetInCU: 0x1091A, offset: 0x1091A, size: 0x8, addend: 0x0, symName: __ZNKSt3__122__compressed_pair_elemIPNS_12basic_stringIcNS_11char_traitsIcEENS_9allocatorIcEEEELi0ELb0EE5__getB7v160006Ev, symObjAddr: 0x1140, symBinAddr: 0x100004250, symSize: 0x10 }
  - { offsetInCU: 0x1093F, offset: 0x1093F, size: 0x8, addend: 0x0, symName: __ZNSt3__19allocatorI4CardE10deallocateB7v160006EPS1_m, symObjAddr: 0x1150, symBinAddr: 0x100004260, symSize: 0x40 }
  - { offsetInCU: 0x10980, offset: 0x10980, size: 0x8, addend: 0x0, symName: __ZNSt3__117__compressed_pairIP4CardNS_9allocatorIS1_EEE6secondB7v160006Ev, symObjAddr: 0x1190, symBinAddr: 0x1000042A0, symSize: 0x20 }
  - { offsetInCU: 0x109A5, offset: 0x109A5, size: 0x8, addend: 0x0, symName: __ZNSt3__122__compressed_pair_elemINS_9allocatorI4CardEELi1ELb1EE5__getB7v160006Ev, symObjAddr: 0x11B0, symBinAddr: 0x1000042C0, symSize: 0x10 }
  - { offsetInCU: 0x109CA, offset: 0x109CA, size: 0x8, addend: 0x0, symName: __ZNKSt3__16vectorI4CardNS_9allocatorIS1_EEE9__end_capB7v160006Ev, symObjAddr: 0x11C0, symBinAddr: 0x1000042D0, symSize: 0x20 }
  - { offsetInCU: 0x109EF, offset: 0x109EF, size: 0x8, addend: 0x0, symName: __ZNKSt3__117__compressed_pairIP4CardNS_9allocatorIS1_EEE5firstB7v160006Ev, symObjAddr: 0x11E0, symBinAddr: 0x1000042F0, symSize: 0x20 }
  - { offsetInCU: 0x10A14, offset: 0x10A14, size: 0x8, addend: 0x0, symName: __ZNKSt3__122__compressed_pair_elemIP4CardLi0ELb0EE5__getB7v160006Ev, symObjAddr: 0x1200, symBinAddr: 0x100004310, symSize: 0x10 }
  - { offsetInCU: 0x10A39, offset: 0x10A39, size: 0x8, addend: 0x0, symName: __ZNKSt3__111__wrap_iterIPP6PlayerE4baseB7v160006Ev, symObjAddr: 0x1250, symBinAddr: 0x100004360, symSize: 0x20 }
  - { offsetInCU: 0x10A5E, offset: 0x10A5E, size: 0x8, addend: 0x0, symName: __ZNSt3__16vectorIP6PlayerNS_9allocatorIS2_EEEC2B7v160006Ev, symObjAddr: 0x1270, symBinAddr: 0x100004380, symSize: 0x60 }
  - { offsetInCU: 0x10A91, offset: 0x10A91, size: 0x8, addend: 0x0, symName: __ZNSt3__117__compressed_pairIPP6PlayerNS_9allocatorIS2_EEEC1B7v160006IDnNS_18__default_init_tagEEEOT_OT0_, symObjAddr: 0x12D0, symBinAddr: 0x1000043E0, symSize: 0x30 }
  - { offsetInCU: 0x10AE8, offset: 0x10AE8, size: 0x8, addend: 0x0, symName: __ZNSt3__117__compressed_pairIPP6PlayerNS_9allocatorIS2_EEEC2B7v160006IDnNS_18__default_init_tagEEEOT_OT0_, symObjAddr: 0x1310, symBinAddr: 0x100004420, symSize: 0x40 }
  - { offsetInCU: 0x10B3F, offset: 0x10B3F, size: 0x8, addend: 0x0, symName: __ZNSt3__122__compressed_pair_elemIPP6PlayerLi0ELb0EEC2B7v160006IDnvEEOT_, symObjAddr: 0x1350, symBinAddr: 0x100004460, symSize: 0x20 }
  - { offsetInCU: 0x10B80, offset: 0x10B80, size: 0x8, addend: 0x0, symName: __ZNSt3__122__compressed_pair_elemINS_9allocatorIP6PlayerEELi1ELb1EEC2B7v160006ENS_18__default_init_tagE, symObjAddr: 0x1370, symBinAddr: 0x100004480, symSize: 0x20 }
  - { offsetInCU: 0x10BB3, offset: 0x10BB3, size: 0x8, addend: 0x0, symName: __ZNSt3__19allocatorIP6PlayerEC2B7v160006Ev, symObjAddr: 0x1390, symBinAddr: 0x1000044A0, symSize: 0x20 }
  - { offsetInCU: 0x10BDC, offset: 0x10BDC, size: 0x8, addend: 0x0, symName: __ZNSt3__116__non_trivial_ifILb1ENS_9allocatorIP6PlayerEEEC2B7v160006Ev, symObjAddr: 0x13B0, symBinAddr: 0x1000044C0, symSize: 0x10 }
  - { offsetInCU: 0x10C05, offset: 0x10C05, size: 0x8, addend: 0x0, symName: __ZNSt3__16vectorIP6PlayerNS_9allocatorIS2_EEED2B7v160006Ev, symObjAddr: 0x13C0, symBinAddr: 0x1000044D0, symSize: 0x40 }
  - { offsetInCU: 0x10C2E, offset: 0x10C2E, size: 0x8, addend: 0x0, symName: __ZNSt3__16vectorIP6PlayerNS_9allocatorIS2_EEE16__destroy_vectorC1ERS5_, symObjAddr: 0x1400, symBinAddr: 0x100004510, symSize: 0x30 }
  - { offsetInCU: 0x10C66, offset: 0x10C66, size: 0x8, addend: 0x0, symName: __ZNSt3__16vectorIP6PlayerNS_9allocatorIS2_EEE16__destroy_vectorclB7v160006Ev, symObjAddr: 0x1430, symBinAddr: 0x100004540, symSize: 0x90 }
  - { offsetInCU: 0x10C8B, offset: 0x10C8B, size: 0x8, addend: 0x0, symName: __ZNSt3__16vectorIP6PlayerNS_9allocatorIS2_EEE16__destroy_vectorC2ERS5_, symObjAddr: 0x14C0, symBinAddr: 0x1000045D0, symSize: 0x20 }
  - { offsetInCU: 0x10CC3, offset: 0x10CC3, size: 0x8, addend: 0x0, symName: __ZNKSt3__16vectorIP6PlayerNS_9allocatorIS2_EEE17__annotate_deleteB7v160006Ev, symObjAddr: 0x14E0, symBinAddr: 0x1000045F0, symSize: 0xB0 }
  - { offsetInCU: 0x10CE8, offset: 0x10CE8, size: 0x8, addend: 0x0, symName: __ZNSt3__16vectorIP6PlayerNS_9allocatorIS2_EEE7__clearB7v160006Ev, symObjAddr: 0x15A0, symBinAddr: 0x1000046B0, symSize: 0x20 }
  - { offsetInCU: 0x10D0D, offset: 0x10D0D, size: 0x8, addend: 0x0, symName: __ZNSt3__116allocator_traitsINS_9allocatorIP6PlayerEEE10deallocateB7v160006ERS4_PS3_m, symObjAddr: 0x15C0, symBinAddr: 0x1000046D0, symSize: 0x30 }
  - { offsetInCU: 0x10D4F, offset: 0x10D4F, size: 0x8, addend: 0x0, symName: __ZNSt3__16vectorIP6PlayerNS_9allocatorIS2_EEE7__allocB7v160006Ev, symObjAddr: 0x15F0, symBinAddr: 0x100004700, symSize: 0x20 }
  - { offsetInCU: 0x10D74, offset: 0x10D74, size: 0x8, addend: 0x0, symName: __ZNKSt3__16vectorIP6PlayerNS_9allocatorIS2_EEE8capacityB7v160006Ev, symObjAddr: 0x1610, symBinAddr: 0x100004720, symSize: 0x30 }
  - { offsetInCU: 0x10D99, offset: 0x10D99, size: 0x8, addend: 0x0, symName: __ZNKSt3__16vectorIP6PlayerNS_9allocatorIS2_EEE31__annotate_contiguous_containerB7v160006EPKvS7_S7_S7_, symObjAddr: 0x1640, symBinAddr: 0x100004750, symSize: 0x20 }
  - { offsetInCU: 0x10DEA, offset: 0x10DEA, size: 0x8, addend: 0x0, symName: __ZNKSt3__16vectorIP6PlayerNS_9allocatorIS2_EEE4dataB7v160006Ev, symObjAddr: 0x1660, symBinAddr: 0x100004770, symSize: 0x20 }
  - { offsetInCU: 0x10E0F, offset: 0x10E0F, size: 0x8, addend: 0x0, symName: __ZNKSt3__16vectorIP6PlayerNS_9allocatorIS2_EEE4sizeB7v160006Ev, symObjAddr: 0x1680, symBinAddr: 0x100004790, symSize: 0x20 }
  - { offsetInCU: 0x10E34, offset: 0x10E34, size: 0x8, addend: 0x0, symName: __ZNSt3__16vectorIP6PlayerNS_9allocatorIS2_EEE22__base_destruct_at_endB7v160006EPS2_, symObjAddr: 0x16B0, symBinAddr: 0x1000047C0, symSize: 0x80 }
  - { offsetInCU: 0x10E77, offset: 0x10E77, size: 0x8, addend: 0x0, symName: __ZNSt3__116allocator_traitsINS_9allocatorIP6PlayerEEE7destroyB7v160006IS3_vEEvRS4_PT_, symObjAddr: 0x1730, symBinAddr: 0x100004840, symSize: 0x30 }
  - { offsetInCU: 0x10EB4, offset: 0x10EB4, size: 0x8, addend: 0x0, symName: __ZNSt3__19allocatorIP6PlayerE7destroyB7v160006EPS2_, symObjAddr: 0x1760, symBinAddr: 0x100004870, symSize: 0x10 }
  - { offsetInCU: 0x10EE7, offset: 0x10EE7, size: 0x8, addend: 0x0, symName: __ZNSt3__19allocatorIP6PlayerE10deallocateB7v160006EPS2_m, symObjAddr: 0x1770, symBinAddr: 0x100004880, symSize: 0x40 }
  - { offsetInCU: 0x10F28, offset: 0x10F28, size: 0x8, addend: 0x0, symName: __ZNSt3__117__compressed_pairIPP6PlayerNS_9allocatorIS2_EEE6secondB7v160006Ev, symObjAddr: 0x17B0, symBinAddr: 0x1000048C0, symSize: 0x20 }
  - { offsetInCU: 0x10F4D, offset: 0x10F4D, size: 0x8, addend: 0x0, symName: __ZNSt3__122__compressed_pair_elemINS_9allocatorIP6PlayerEELi1ELb1EE5__getB7v160006Ev, symObjAddr: 0x17D0, symBinAddr: 0x1000048E0, symSize: 0x10 }
  - { offsetInCU: 0x10F72, offset: 0x10F72, size: 0x8, addend: 0x0, symName: __ZNKSt3__16vectorIP6PlayerNS_9allocatorIS2_EEE9__end_capB7v160006Ev, symObjAddr: 0x17E0, symBinAddr: 0x1000048F0, symSize: 0x20 }
  - { offsetInCU: 0x10F97, offset: 0x10F97, size: 0x8, addend: 0x0, symName: __ZNKSt3__117__compressed_pairIPP6PlayerNS_9allocatorIS2_EEE5firstB7v160006Ev, symObjAddr: 0x1800, symBinAddr: 0x100004910, symSize: 0x20 }
  - { offsetInCU: 0x10FBC, offset: 0x10FBC, size: 0x8, addend: 0x0, symName: __ZNKSt3__122__compressed_pair_elemIPP6PlayerLi0ELb0EE5__getB7v160006Ev, symObjAddr: 0x1820, symBinAddr: 0x100004930, symSize: 0x10 }
  - { offsetInCU: 0x10FE1, offset: 0x10FE1, size: 0x8, addend: 0x0, symName: __ZNSt3__111char_traitsIcE6lengthEPKc, symObjAddr: 0x1A20, symBinAddr: 0x100004B30, symSize: 0x30 }
  - { offsetInCU: 0x11022, offset: 0x11022, size: 0x8, addend: 0x0, symName: __ZNKSt3__113basic_ostreamIcNS_11char_traitsIcEEE6sentrycvbB7v160006Ev, symObjAddr: 0x1A50, symBinAddr: 0x100004B60, symSize: 0x20 }
  - { offsetInCU: 0x11047, offset: 0x11047, size: 0x8, addend: 0x0, symName: __ZNSt3__119ostreambuf_iteratorIcNS_11char_traitsIcEEEC1B7v160006ERNS_13basic_ostreamIcS2_EE, symObjAddr: 0x1C90, symBinAddr: 0x100004DA0, symSize: 0x30 }
  - { offsetInCU: 0x1107E, offset: 0x1107E, size: 0x8, addend: 0x0, symName: __ZNKSt3__18ios_base5flagsB7v160006Ev, symObjAddr: 0x1CC0, symBinAddr: 0x100004DD0, symSize: 0x20 }
  - { offsetInCU: 0x110A4, offset: 0x110A4, size: 0x8, addend: 0x0, symName: __ZNKSt3__19basic_iosIcNS_11char_traitsIcEEE4fillB7v160006Ev, symObjAddr: 0x1CE0, symBinAddr: 0x100004DF0, symSize: 0x70 }
  - { offsetInCU: 0x110CA, offset: 0x110CA, size: 0x8, addend: 0x0, symName: __ZNKSt3__119ostreambuf_iteratorIcNS_11char_traitsIcEEE6failedB7v160006Ev, symObjAddr: 0x1D50, symBinAddr: 0x100004E60, symSize: 0x20 }
  - { offsetInCU: 0x110EF, offset: 0x110EF, size: 0x8, addend: 0x0, symName: __ZNSt3__19basic_iosIcNS_11char_traitsIcEEE8setstateB7v160006Ej, symObjAddr: 0x1D70, symBinAddr: 0x100004E80, symSize: 0x30 }
  - { offsetInCU: 0x11123, offset: 0x11123, size: 0x8, addend: 0x0, symName: __ZNKSt3__18ios_base5widthB7v160006Ev, symObjAddr: 0x1DA0, symBinAddr: 0x100004EB0, symSize: 0x20 }
  - { offsetInCU: 0x11149, offset: 0x11149, size: 0x8, addend: 0x0, symName: __ZNSt3__115basic_streambufIcNS_11char_traitsIcEEE5sputnB7v160006EPKcl, symObjAddr: 0x1DC0, symBinAddr: 0x100004ED0, symSize: 0x30 }
  - { offsetInCU: 0x1118A, offset: 0x1118A, size: 0x8, addend: 0x0, symName: __ZNSt3__112basic_stringIcNS_11char_traitsIcEENS_9allocatorIcEEEC1B7v160006Emc, symObjAddr: 0x1DF0, symBinAddr: 0x100004F00, symSize: 0x30 }
  - { offsetInCU: 0x111D1, offset: 0x111D1, size: 0x8, addend: 0x0, symName: __ZNSt3__112basic_stringIcNS_11char_traitsIcEENS_9allocatorIcEEE4dataB7v160006Ev, symObjAddr: 0x1E20, symBinAddr: 0x100004F30, symSize: 0x30 }
  - { offsetInCU: 0x111F6, offset: 0x111F6, size: 0x8, addend: 0x0, symName: __ZNSt3__18ios_base5widthB7v160006El, symObjAddr: 0x1E50, symBinAddr: 0x100004F60, symSize: 0x30 }
  - { offsetInCU: 0x1123A, offset: 0x1123A, size: 0x8, addend: 0x0, symName: __ZNSt3__112basic_stringIcNS_11char_traitsIcEENS_9allocatorIcEEEC2B7v160006Emc, symObjAddr: 0x1E80, symBinAddr: 0x100004F90, symSize: 0x50 }
  - { offsetInCU: 0x11281, offset: 0x11281, size: 0x8, addend: 0x0, symName: __ZNSt3__117__compressed_pairINS_12basic_stringIcNS_11char_traitsIcEENS_9allocatorIcEEE5__repES5_EC1B7v160006INS_18__default_init_tagESA_EEOT_OT0_, symObjAddr: 0x1ED0, symBinAddr: 0x100004FE0, symSize: 0x30 }
  - { offsetInCU: 0x112D8, offset: 0x112D8, size: 0x8, addend: 0x0, symName: __ZNSt3__117__compressed_pairINS_12basic_stringIcNS_11char_traitsIcEENS_9allocatorIcEEE5__repES5_EC2B7v160006INS_18__default_init_tagESA_EEOT_OT0_, symObjAddr: 0x1F10, symBinAddr: 0x100005020, symSize: 0x30 }
  - { offsetInCU: 0x1132F, offset: 0x1132F, size: 0x8, addend: 0x0, symName: __ZNSt3__122__compressed_pair_elemINS_12basic_stringIcNS_11char_traitsIcEENS_9allocatorIcEEE5__repELi0ELb0EEC2B7v160006ENS_18__default_init_tagE, symObjAddr: 0x1F40, symBinAddr: 0x100005050, symSize: 0x10 }
  - { offsetInCU: 0x11362, offset: 0x11362, size: 0x8, addend: 0x0, symName: __ZNSt3__122__compressed_pair_elemINS_9allocatorIcEELi1ELb1EEC2B7v160006ENS_18__default_init_tagE, symObjAddr: 0x1F50, symBinAddr: 0x100005060, symSize: 0x20 }
  - { offsetInCU: 0x11395, offset: 0x11395, size: 0x8, addend: 0x0, symName: __ZNSt3__19allocatorIcEC2B7v160006Ev, symObjAddr: 0x1F70, symBinAddr: 0x100005080, symSize: 0x20 }
  - { offsetInCU: 0x113BE, offset: 0x113BE, size: 0x8, addend: 0x0, symName: __ZNSt3__116__non_trivial_ifILb1ENS_9allocatorIcEEEC2B7v160006Ev, symObjAddr: 0x1F90, symBinAddr: 0x1000050A0, symSize: 0x10 }
  - { offsetInCU: 0x113E7, offset: 0x113E7, size: 0x8, addend: 0x0, symName: __ZNSt3__112basic_stringIcNS_11char_traitsIcEENS_9allocatorIcEEE13__get_pointerB7v160006Ev, symObjAddr: 0x1FB0, symBinAddr: 0x1000050C0, symSize: 0x50 }
  - { offsetInCU: 0x1140C, offset: 0x1140C, size: 0x8, addend: 0x0, symName: __ZNKSt3__112basic_stringIcNS_11char_traitsIcEENS_9allocatorIcEEE9__is_longB7v160006Ev, symObjAddr: 0x2000, symBinAddr: 0x100005110, symSize: 0x30 }
  - { offsetInCU: 0x11431, offset: 0x11431, size: 0x8, addend: 0x0, symName: __ZNSt3__112basic_stringIcNS_11char_traitsIcEENS_9allocatorIcEEE18__get_long_pointerB7v160006Ev, symObjAddr: 0x2030, symBinAddr: 0x100005140, symSize: 0x20 }
  - { offsetInCU: 0x11456, offset: 0x11456, size: 0x8, addend: 0x0, symName: __ZNSt3__112basic_stringIcNS_11char_traitsIcEENS_9allocatorIcEEE19__get_short_pointerB7v160006Ev, symObjAddr: 0x2050, symBinAddr: 0x100005160, symSize: 0x30 }
  - { offsetInCU: 0x1147B, offset: 0x1147B, size: 0x8, addend: 0x0, symName: __ZNKSt3__117__compressed_pairINS_12basic_stringIcNS_11char_traitsIcEENS_9allocatorIcEEE5__repES5_E5firstB7v160006Ev, symObjAddr: 0x2080, symBinAddr: 0x100005190, symSize: 0x20 }
  - { offsetInCU: 0x114A0, offset: 0x114A0, size: 0x8, addend: 0x0, symName: __ZNKSt3__122__compressed_pair_elemINS_12basic_stringIcNS_11char_traitsIcEENS_9allocatorIcEEE5__repELi0ELb0EE5__getB7v160006Ev, symObjAddr: 0x20A0, symBinAddr: 0x1000051B0, symSize: 0x10 }
  - { offsetInCU: 0x114C5, offset: 0x114C5, size: 0x8, addend: 0x0, symName: __ZNSt3__117__compressed_pairINS_12basic_stringIcNS_11char_traitsIcEENS_9allocatorIcEEE5__repES5_E5firstB7v160006Ev, symObjAddr: 0x20B0, symBinAddr: 0x1000051C0, symSize: 0x20 }
  - { offsetInCU: 0x114EA, offset: 0x114EA, size: 0x8, addend: 0x0, symName: __ZNSt3__122__compressed_pair_elemINS_12basic_stringIcNS_11char_traitsIcEENS_9allocatorIcEEE5__repELi0ELb0EE5__getB7v160006Ev, symObjAddr: 0x20D0, symBinAddr: 0x1000051E0, symSize: 0x10 }
  - { offsetInCU: 0x1150F, offset: 0x1150F, size: 0x8, addend: 0x0, symName: __ZNSt3__114pointer_traitsIPcE10pointer_toB7v160006ERc, symObjAddr: 0x20E0, symBinAddr: 0x1000051F0, symSize: 0x10 }
  - { offsetInCU: 0x11532, offset: 0x11532, size: 0x8, addend: 0x0, symName: __ZNSt3__119ostreambuf_iteratorIcNS_11char_traitsIcEEEC2B7v160006ERNS_13basic_ostreamIcS2_EE, symObjAddr: 0x20F0, symBinAddr: 0x100005200, symSize: 0x50 }
  - { offsetInCU: 0x11569, offset: 0x11569, size: 0x8, addend: 0x0, symName: __ZNKSt3__19basic_iosIcNS_11char_traitsIcEEE5rdbufB7v160006Ev, symObjAddr: 0x2140, symBinAddr: 0x100005250, symSize: 0x20 }
  - { offsetInCU: 0x1158F, offset: 0x1158F, size: 0x8, addend: 0x0, symName: __ZNKSt3__18ios_base5rdbufB7v160006Ev, symObjAddr: 0x2160, symBinAddr: 0x100005270, symSize: 0x20 }
  - { offsetInCU: 0x115B4, offset: 0x115B4, size: 0x8, addend: 0x0, symName: __ZNSt3__111char_traitsIcE11eq_int_typeEii, symObjAddr: 0x2180, symBinAddr: 0x100005290, symSize: 0x20 }
  - { offsetInCU: 0x115E5, offset: 0x115E5, size: 0x8, addend: 0x0, symName: __ZNSt3__111char_traitsIcE3eofEv, symObjAddr: 0x21A0, symBinAddr: 0x1000052B0, symSize: 0x10 }
  - { offsetInCU: 0x115F9, offset: 0x115F9, size: 0x8, addend: 0x0, symName: __ZNKSt3__19basic_iosIcNS_11char_traitsIcEEE5widenB7v160006Ec, symObjAddr: 0x21B0, symBinAddr: 0x1000052C0, symSize: 0x80 }
  - { offsetInCU: 0x11665, offset: 0x11665, size: 0x8, addend: 0x0, symName: __ZNKSt3__15ctypeIcE5widenB7v160006Ec, symObjAddr: 0x2260, symBinAddr: 0x100005370, symSize: 0x30 }
  - { offsetInCU: 0x11699, offset: 0x11699, size: 0x8, addend: 0x0, symName: __ZNSt3__18ios_base8setstateB7v160006Ej, symObjAddr: 0x2290, symBinAddr: 0x1000053A0, symSize: 0x30 }
  - { offsetInCU: 0x116CE, offset: 0x116CE, size: 0x8, addend: 0x0, symName: __ZNSt3__16vectorIP6PlayerNS_9allocatorIS2_EEE6assignIPKS2_Li0EEEvT_S9_, symObjAddr: 0x22E0, symBinAddr: 0x1000053F0, symSize: 0x160 }
  - { offsetInCU: 0x1176B, offset: 0x1176B, size: 0x8, addend: 0x0, symName: __ZNKSt16initializer_listIP6PlayerE5beginB7v160006Ev, symObjAddr: 0x2440, symBinAddr: 0x100005550, symSize: 0x20 }
  - { offsetInCU: 0x11790, offset: 0x11790, size: 0x8, addend: 0x0, symName: __ZNKSt16initializer_listIP6PlayerE3endB7v160006Ev, symObjAddr: 0x2460, symBinAddr: 0x100005570, symSize: 0x20 }
  - { offsetInCU: 0x117B5, offset: 0x117B5, size: 0x8, addend: 0x0, symName: __ZNSt3__16vectorIP6PlayerNS_9allocatorIS2_EEE18__construct_at_endIPKS2_Li0EEEvT_S9_m, symObjAddr: 0x2540, symBinAddr: 0x100005650, symSize: 0x90 }
  - { offsetInCU: 0x11826, offset: 0x11826, size: 0x8, addend: 0x0, symName: __ZNSt3__16vectorIP6PlayerNS_9allocatorIS2_EEE17__destruct_at_endB7v160006EPS2_, symObjAddr: 0x25D0, symBinAddr: 0x1000056E0, symSize: 0x60 }
  - { offsetInCU: 0x11869, offset: 0x11869, size: 0x8, addend: 0x0, symName: __ZNSt3__16vectorIP6PlayerNS_9allocatorIS2_EEE13__vdeallocateEv, symObjAddr: 0x2630, symBinAddr: 0x100005740, symSize: 0x80 }
  - { offsetInCU: 0x1188F, offset: 0x1188F, size: 0x8, addend: 0x0, symName: __ZNSt3__16vectorIP6PlayerNS_9allocatorIS2_EEE11__vallocateB7v160006Em, symObjAddr: 0x26B0, symBinAddr: 0x1000057C0, symSize: 0xA0 }
  - { offsetInCU: 0x118D2, offset: 0x118D2, size: 0x8, addend: 0x0, symName: __ZNKSt3__16vectorIP6PlayerNS_9allocatorIS2_EEE11__recommendB7v160006Em, symObjAddr: 0x2750, symBinAddr: 0x100005860, symSize: 0xA0 }
  - { offsetInCU: 0x11948, offset: 0x11948, size: 0x8, addend: 0x0, symName: __ZNKSt3__114__copy_trivialclB7v160006IKP6PlayerS3_Li0EEENS_4pairIPT_PT0_EES7_S7_S9_, symObjAddr: 0x29D0, symBinAddr: 0x100005AE0, symSize: 0x40 }
  - { offsetInCU: 0x119CD, offset: 0x119CD, size: 0x8, addend: 0x0, symName: __ZNSt3__14pairIPKP6PlayerS4_EC1B7v160006IS4_S4_LPv0EEEOT_OT0_, symObjAddr: 0x2B20, symBinAddr: 0x100005C30, symSize: 0x30 }
  - { offsetInCU: 0x11A2A, offset: 0x11A2A, size: 0x8, addend: 0x0, symName: __ZNSt3__14pairIPKP6PlayerS4_EC2B7v160006IS4_S4_LPv0EEEOT_OT0_, symObjAddr: 0x2B50, symBinAddr: 0x100005C60, symSize: 0x30 }
  - { offsetInCU: 0x11A87, offset: 0x11A87, size: 0x8, addend: 0x0, symName: __ZNSt3__118__unwrap_iter_implIPKP6PlayerLb1EE8__unwrapB7v160006ES4_, symObjAddr: 0x2B80, symBinAddr: 0x100005C90, symSize: 0x20 }
  - { offsetInCU: 0x11AB4, offset: 0x11AB4, size: 0x8, addend: 0x0, symName: __ZNSt3__14pairIPKP6PlayerPS2_EC1B7v160006IRS4_S5_LPv0EEEOT_OT0_, symObjAddr: 0x2C50, symBinAddr: 0x100005D60, symSize: 0x30 }
  - { offsetInCU: 0x11B11, offset: 0x11B11, size: 0x8, addend: 0x0, symName: __ZNSt3__14pairIPKP6PlayerPS2_EC2B7v160006IRS4_S5_LPv0EEEOT_OT0_, symObjAddr: 0x2C80, symBinAddr: 0x100005D90, symSize: 0x30 }
  - { offsetInCU: 0x11B6E, offset: 0x11B6E, size: 0x8, addend: 0x0, symName: __ZNSt3__118__unwrap_iter_implIPP6PlayerLb1EE8__unwrapB7v160006ES3_, symObjAddr: 0x2CB0, symBinAddr: 0x100005DC0, symSize: 0x20 }
  - { offsetInCU: 0x11B91, offset: 0x11B91, size: 0x8, addend: 0x0, symName: __ZNSt3__14pairIPKP6PlayerPS2_EC1B7v160006IS4_S5_LPv0EEEOT_OT0_, symObjAddr: 0x2CD0, symBinAddr: 0x100005DE0, symSize: 0x30 }
  - { offsetInCU: 0x11BEE, offset: 0x11BEE, size: 0x8, addend: 0x0, symName: __ZNSt3__14pairIPKP6PlayerPS2_EC2B7v160006IS4_S5_LPv0EEEOT_OT0_, symObjAddr: 0x2D00, symBinAddr: 0x100005E10, symSize: 0x30 }
  - { offsetInCU: 0x11C4B, offset: 0x11C4B, size: 0x8, addend: 0x0, symName: __ZNSt3__118__unwrap_iter_implIPKP6PlayerLb1EE8__rewrapB7v160006ES4_S4_, symObjAddr: 0x2D70, symBinAddr: 0x100005E80, symSize: 0x50 }
  - { offsetInCU: 0x11C7C, offset: 0x11C7C, size: 0x8, addend: 0x0, symName: __ZNSt3__118__unwrap_iter_implIPP6PlayerLb1EE8__rewrapB7v160006ES3_S3_, symObjAddr: 0x2DC0, symBinAddr: 0x100005ED0, symSize: 0x50 }
  - { offsetInCU: 0x11CC6, offset: 0x11CC6, size: 0x8, addend: 0x0, symName: __ZNSt3__16vectorIP6PlayerNS_9allocatorIS2_EEE21_ConstructTransactionC1B7v160006ERS5_m, symObjAddr: 0x2E10, symBinAddr: 0x100005F20, symSize: 0x30 }
  - { offsetInCU: 0x11D0D, offset: 0x11D0D, size: 0x8, addend: 0x0, symName: __ZNSt3__16vectorIP6PlayerNS_9allocatorIS2_EEE21_ConstructTransactionD1B7v160006Ev, symObjAddr: 0x2E70, symBinAddr: 0x100005F80, symSize: 0x20 }
  - { offsetInCU: 0x11D36, offset: 0x11D36, size: 0x8, addend: 0x0, symName: __ZNSt3__16vectorIP6PlayerNS_9allocatorIS2_EEE21_ConstructTransactionC2B7v160006ERS5_m, symObjAddr: 0x2E90, symBinAddr: 0x100005FA0, symSize: 0x40 }
  - { offsetInCU: 0x11D7D, offset: 0x11D7D, size: 0x8, addend: 0x0, symName: __ZNSt3__16vectorIP6PlayerNS_9allocatorIS2_EEE21_ConstructTransactionD2B7v160006Ev, symObjAddr: 0x2ED0, symBinAddr: 0x100005FE0, symSize: 0x20 }
  - { offsetInCU: 0x11DA6, offset: 0x11DA6, size: 0x8, addend: 0x0, symName: __ZNSt3__16vectorIP6PlayerNS_9allocatorIS2_EEE27__invalidate_iterators_pastB7v160006EPS2_, symObjAddr: 0x2EF0, symBinAddr: 0x100006000, symSize: 0x10 }
  - { offsetInCU: 0x11DDB, offset: 0x11DDB, size: 0x8, addend: 0x0, symName: __ZNKSt3__16vectorIP6PlayerNS_9allocatorIS2_EEE17__annotate_shrinkB7v160006Em, symObjAddr: 0x2F00, symBinAddr: 0x100006010, symSize: 0xA0 }
  - { offsetInCU: 0x11E0F, offset: 0x11E0F, size: 0x8, addend: 0x0, symName: __ZNSt3__16vectorIP6PlayerNS_9allocatorIS2_EEE5clearB7v160006Ev, symObjAddr: 0x2FA0, symBinAddr: 0x1000060B0, symSize: 0x50 }
  - { offsetInCU: 0x11E43, offset: 0x11E43, size: 0x8, addend: 0x0, symName: __ZNSt3__16vectorIP6PlayerNS_9allocatorIS2_EEE9__end_capB7v160006Ev, symObjAddr: 0x2FF0, symBinAddr: 0x100006100, symSize: 0x20 }
  - { offsetInCU: 0x11E68, offset: 0x11E68, size: 0x8, addend: 0x0, symName: __ZNSt3__117__compressed_pairIPP6PlayerNS_9allocatorIS2_EEE5firstB7v160006Ev, symObjAddr: 0x3010, symBinAddr: 0x100006120, symSize: 0x20 }
  - { offsetInCU: 0x11E8D, offset: 0x11E8D, size: 0x8, addend: 0x0, symName: __ZNSt3__122__compressed_pair_elemIPP6PlayerLi0ELb0EE5__getB7v160006Ev, symObjAddr: 0x3030, symBinAddr: 0x100006140, symSize: 0x10 }
  - { offsetInCU: 0x11EB2, offset: 0x11EB2, size: 0x8, addend: 0x0, symName: __ZNKSt3__16vectorIP6PlayerNS_9allocatorIS2_EEE8max_sizeEv, symObjAddr: 0x3040, symBinAddr: 0x100006150, symSize: 0x60 }
  - { offsetInCU: 0x11ED8, offset: 0x11ED8, size: 0x8, addend: 0x0, symName: __ZNKSt3__16vectorIP6PlayerNS_9allocatorIS2_EEE20__throw_length_errorB7v160006Ev, symObjAddr: 0x30A0, symBinAddr: 0x1000061B0, symSize: 0x20 }
  - { offsetInCU: 0x11EFD, offset: 0x11EFD, size: 0x8, addend: 0x0, symName: __ZNKSt3__16vectorIP6PlayerNS_9allocatorIS2_EEE14__annotate_newB7v160006Em, symObjAddr: 0x3100, symBinAddr: 0x100006210, symSize: 0xB0 }
  - { offsetInCU: 0x11F3B, offset: 0x11F3B, size: 0x8, addend: 0x0, symName: __ZNSt3__116allocator_traitsINS_9allocatorIP6PlayerEEE8max_sizeB7v160006IS4_vEEmRKS4_, symObjAddr: 0x31E0, symBinAddr: 0x1000062F0, symSize: 0x20 }
  - { offsetInCU: 0x11F69, offset: 0x11F69, size: 0x8, addend: 0x0, symName: __ZNKSt3__16vectorIP6PlayerNS_9allocatorIS2_EEE7__allocB7v160006Ev, symObjAddr: 0x3200, symBinAddr: 0x100006310, symSize: 0x20 }
  - { offsetInCU: 0x11F8E, offset: 0x11F8E, size: 0x8, addend: 0x0, symName: __ZNSt3__114numeric_limitsIlE3maxB7v160006Ev, symObjAddr: 0x3220, symBinAddr: 0x100006330, symSize: 0x10 }
  - { offsetInCU: 0x11FAC, offset: 0x11FAC, size: 0x8, addend: 0x0, symName: __ZNKSt3__16__lessImmEclB7v160006ERKmS3_, symObjAddr: 0x3280, symBinAddr: 0x100006390, symSize: 0x30 }
  - { offsetInCU: 0x11FED, offset: 0x11FED, size: 0x8, addend: 0x0, symName: __ZNKSt3__19allocatorIP6PlayerE8max_sizeB7v160006Ev, symObjAddr: 0x32B0, symBinAddr: 0x1000063C0, symSize: 0x20 }
  - { offsetInCU: 0x12012, offset: 0x12012, size: 0x8, addend: 0x0, symName: __ZNKSt3__117__compressed_pairIPP6PlayerNS_9allocatorIS2_EEE6secondB7v160006Ev, symObjAddr: 0x32D0, symBinAddr: 0x1000063E0, symSize: 0x20 }
  - { offsetInCU: 0x12037, offset: 0x12037, size: 0x8, addend: 0x0, symName: __ZNKSt3__122__compressed_pair_elemINS_9allocatorIP6PlayerEELi1ELb1EE5__getB7v160006Ev, symObjAddr: 0x32F0, symBinAddr: 0x100006400, symSize: 0x10 }
  - { offsetInCU: 0x1205C, offset: 0x1205C, size: 0x8, addend: 0x0, symName: __ZNSt3__123__libcpp_numeric_limitsIlLb1EE3maxB7v160006Ev, symObjAddr: 0x3300, symBinAddr: 0x100006410, symSize: 0x10 }
  - { offsetInCU: 0x12070, offset: 0x12070, size: 0x8, addend: 0x0, symName: __ZNSt12length_errorC1B7v160006EPKc, symObjAddr: 0x3380, symBinAddr: 0x100006490, symSize: 0x30 }
  - { offsetInCU: 0x120A7, offset: 0x120A7, size: 0x8, addend: 0x0, symName: __ZNSt12length_errorC2B7v160006EPKc, symObjAddr: 0x33B0, symBinAddr: 0x1000064C0, symSize: 0x40 }
  - { offsetInCU: 0x120DE, offset: 0x120DE, size: 0x8, addend: 0x0, symName: __ZNSt3__19allocatorIP6PlayerE8allocateB7v160006Em, symObjAddr: 0x33F0, symBinAddr: 0x100006500, symSize: 0x50 }
  - { offsetInCU: 0x12116, offset: 0x12116, size: 0x8, addend: 0x0, symName: __ZNSt3__16vectorIP6PlayerNS_9allocatorIS2_EEE22__construct_one_at_endB7v160006IJS2_EEEvDpOT_, symObjAddr: 0x35B0, symBinAddr: 0x1000066C0, symSize: 0x90 }
  - { offsetInCU: 0x12164, offset: 0x12164, size: 0x8, addend: 0x0, symName: __ZNSt3__16vectorIP6PlayerNS_9allocatorIS2_EEE21__push_back_slow_pathIS2_EEvOT_, symObjAddr: 0x3640, symBinAddr: 0x100006750, symSize: 0xD0 }
  - { offsetInCU: 0x121C0, offset: 0x121C0, size: 0x8, addend: 0x0, symName: __ZNSt3__116allocator_traitsINS_9allocatorIP6PlayerEEE9constructB7v160006IS3_JS3_EvEEvRS4_PT_DpOT0_, symObjAddr: 0x3710, symBinAddr: 0x100006820, symSize: 0x30 }
  - { offsetInCU: 0x12217, offset: 0x12217, size: 0x8, addend: 0x0, symName: __ZNSt3__19allocatorIP6PlayerE9constructB7v160006IS2_JS2_EEEvPT_DpOT0_, symObjAddr: 0x3740, symBinAddr: 0x100006850, symSize: 0x20 }
  - { offsetInCU: 0x1226C, offset: 0x1226C, size: 0x8, addend: 0x0, symName: __ZNSt3__114__split_bufferIP6PlayerRNS_9allocatorIS2_EEEC1EmmS5_, symObjAddr: 0x3760, symBinAddr: 0x100006870, symSize: 0x40 }
  - { offsetInCU: 0x122C1, offset: 0x122C1, size: 0x8, addend: 0x0, symName: __ZNSt3__114__split_bufferIP6PlayerRNS_9allocatorIS2_EEED1Ev, symObjAddr: 0x38D0, symBinAddr: 0x1000069E0, symSize: 0x20 }
  - { offsetInCU: 0x122EC, offset: 0x122EC, size: 0x8, addend: 0x0, symName: __ZNSt3__114__split_bufferIP6PlayerRNS_9allocatorIS2_EEEC2EmmS5_, symObjAddr: 0x38F0, symBinAddr: 0x100006A00, symSize: 0xD0 }
  - { offsetInCU: 0x1235E, offset: 0x1235E, size: 0x8, addend: 0x0, symName: __ZNSt3__117__compressed_pairIPP6PlayerRNS_9allocatorIS2_EEEC1B7v160006IDnS6_EEOT_OT0_, symObjAddr: 0x39C0, symBinAddr: 0x100006AD0, symSize: 0x30 }
  - { offsetInCU: 0x123B5, offset: 0x123B5, size: 0x8, addend: 0x0, symName: __ZNSt3__114__split_bufferIP6PlayerRNS_9allocatorIS2_EEE7__allocB7v160006Ev, symObjAddr: 0x39F0, symBinAddr: 0x100006B00, symSize: 0x20 }
  - { offsetInCU: 0x123DA, offset: 0x123DA, size: 0x8, addend: 0x0, symName: __ZNSt3__114__split_bufferIP6PlayerRNS_9allocatorIS2_EEE9__end_capB7v160006Ev, symObjAddr: 0x3A10, symBinAddr: 0x100006B20, symSize: 0x20 }
  - { offsetInCU: 0x123FF, offset: 0x123FF, size: 0x8, addend: 0x0, symName: __ZNSt3__117__compressed_pairIPP6PlayerRNS_9allocatorIS2_EEEC2B7v160006IDnS6_EEOT_OT0_, symObjAddr: 0x3A30, symBinAddr: 0x100006B40, symSize: 0x40 }
  - { offsetInCU: 0x12456, offset: 0x12456, size: 0x8, addend: 0x0, symName: __ZNSt3__122__compressed_pair_elemIRNS_9allocatorIP6PlayerEELi1ELb0EEC2B7v160006IS5_vEEOT_, symObjAddr: 0x3A70, symBinAddr: 0x100006B80, symSize: 0x20 }
  - { offsetInCU: 0x12497, offset: 0x12497, size: 0x8, addend: 0x0, symName: __ZNSt3__117__compressed_pairIPP6PlayerRNS_9allocatorIS2_EEE6secondB7v160006Ev, symObjAddr: 0x3A90, symBinAddr: 0x100006BA0, symSize: 0x20 }
  - { offsetInCU: 0x124BC, offset: 0x124BC, size: 0x8, addend: 0x0, symName: __ZNSt3__122__compressed_pair_elemIRNS_9allocatorIP6PlayerEELi1ELb0EE5__getB7v160006Ev, symObjAddr: 0x3AB0, symBinAddr: 0x100006BC0, symSize: 0x20 }
  - { offsetInCU: 0x124E1, offset: 0x124E1, size: 0x8, addend: 0x0, symName: __ZNSt3__117__compressed_pairIPP6PlayerRNS_9allocatorIS2_EEE5firstB7v160006Ev, symObjAddr: 0x3AD0, symBinAddr: 0x100006BE0, symSize: 0x20 }
  - { offsetInCU: 0x12506, offset: 0x12506, size: 0x8, addend: 0x0, symName: __ZNSt3__116reverse_iteratorIPP6PlayerEC1B7v160006ES3_, symObjAddr: 0x3B60, symBinAddr: 0x100006C70, symSize: 0x30 }
  - { offsetInCU: 0x1253D, offset: 0x1253D, size: 0x8, addend: 0x0, symName: __ZNKSt3__116reverse_iteratorIPP6PlayerE4baseB7v160006Ev, symObjAddr: 0x3B90, symBinAddr: 0x100006CA0, symSize: 0x20 }
  - { offsetInCU: 0x12585, offset: 0x12585, size: 0x8, addend: 0x0, symName: __ZNKSt3__111__move_loopINS_17_ClassicAlgPolicyEEclB7v160006INS_16reverse_iteratorIPP6PlayerEES8_S8_EENS_4pairIT_T1_EESA_T0_SB_, symObjAddr: 0x4030, symBinAddr: 0x100007140, symSize: 0xA0 }
  - { offsetInCU: 0x125EF, offset: 0x125EF, size: 0x8, addend: 0x0, symName: __ZNSt3__18_IterOpsINS_17_ClassicAlgPolicyEE11__iter_moveB7v160006IRNS_16reverse_iteratorIPP6PlayerEEEENS_9enable_ifIXsr12is_referenceIDTdeclsr3stdE7declvalIRT_EEEEE5valueEDTclsr3stdE4movedeclsr3stdE7declvalISC_EEEEE4typeEOSB_, symObjAddr: 0x4250, symBinAddr: 0x100007360, symSize: 0x20 }
  - { offsetInCU: 0x1261B, offset: 0x1261B, size: 0x8, addend: 0x0, symName: __ZNKSt3__116reverse_iteratorIPP6PlayerEdeB7v160006Ev, symObjAddr: 0x4270, symBinAddr: 0x100007380, symSize: 0x30 }
  - { offsetInCU: 0x1264E, offset: 0x1264E, size: 0x8, addend: 0x0, symName: __ZNSt3__116reverse_iteratorIPP6PlayerEppB7v160006Ev, symObjAddr: 0x42A0, symBinAddr: 0x1000073B0, symSize: 0x20 }
  - { offsetInCU: 0x12673, offset: 0x12673, size: 0x8, addend: 0x0, symName: __ZNSt3__18_IterOpsINS_17_ClassicAlgPolicyEE25__validate_iter_referenceB7v160006IRNS_16reverse_iteratorIPP6PlayerEEEEvv, symObjAddr: 0x42C0, symBinAddr: 0x1000073D0, symSize: 0x10 }
  - { offsetInCU: 0x12691, offset: 0x12691, size: 0x8, addend: 0x0, symName: __ZNSt3__118__unwrap_iter_implINS_16reverse_iteratorIPP6PlayerEELb0EE8__unwrapB7v160006ES5_, symObjAddr: 0x42D0, symBinAddr: 0x1000073E0, symSize: 0x20 }
  - { offsetInCU: 0x126B9, offset: 0x126B9, size: 0x8, addend: 0x0, symName: __ZNSt3__14pairINS_16reverse_iteratorIPP6PlayerEES5_EC1B7v160006IS5_S5_LPv0EEEOT_OT0_, symObjAddr: 0x42F0, symBinAddr: 0x100007400, symSize: 0x30 }
  - { offsetInCU: 0x12716, offset: 0x12716, size: 0x8, addend: 0x0, symName: __ZNSt3__14pairINS_16reverse_iteratorIPP6PlayerEES5_EC2B7v160006IS5_S5_LPv0EEEOT_OT0_, symObjAddr: 0x4320, symBinAddr: 0x100007430, symSize: 0x40 }
  - { offsetInCU: 0x12773, offset: 0x12773, size: 0x8, addend: 0x0, symName: __ZNSt3__118__unwrap_iter_implINS_16reverse_iteratorIPP6PlayerEELb0EE8__rewrapB7v160006ES5_S5_, symObjAddr: 0x4360, symBinAddr: 0x100007470, symSize: 0x30 }
  - { offsetInCU: 0x127A0, offset: 0x127A0, size: 0x8, addend: 0x0, symName: __ZNSt3__116reverse_iteratorIPP6PlayerEC2B7v160006ES3_, symObjAddr: 0x4390, symBinAddr: 0x1000074A0, symSize: 0x30 }
  - { offsetInCU: 0x127D7, offset: 0x127D7, size: 0x8, addend: 0x0, symName: __ZNSt3__114__split_bufferIP6PlayerRNS_9allocatorIS2_EEED2Ev, symObjAddr: 0x43C0, symBinAddr: 0x1000074D0, symSize: 0x70 }
  - { offsetInCU: 0x12802, offset: 0x12802, size: 0x8, addend: 0x0, symName: __ZNSt3__114__split_bufferIP6PlayerRNS_9allocatorIS2_EEE5clearB7v160006Ev, symObjAddr: 0x4430, symBinAddr: 0x100007540, symSize: 0x20 }
  - { offsetInCU: 0x12827, offset: 0x12827, size: 0x8, addend: 0x0, symName: __ZNKSt3__114__split_bufferIP6PlayerRNS_9allocatorIS2_EEE8capacityB7v160006Ev, symObjAddr: 0x4450, symBinAddr: 0x100007560, symSize: 0x30 }
  - { offsetInCU: 0x1284C, offset: 0x1284C, size: 0x8, addend: 0x0, symName: __ZNSt3__114__split_bufferIP6PlayerRNS_9allocatorIS2_EEE17__destruct_at_endB7v160006EPS2_, symObjAddr: 0x4480, symBinAddr: 0x100007590, symSize: 0x30 }
  - { offsetInCU: 0x1287F, offset: 0x1287F, size: 0x8, addend: 0x0, symName: __ZNSt3__114__split_bufferIP6PlayerRNS_9allocatorIS2_EEE17__destruct_at_endB7v160006EPS2_NS_17integral_constantIbLb0EEE, symObjAddr: 0x44B0, symBinAddr: 0x1000075C0, symSize: 0x80 }
  - { offsetInCU: 0x128BD, offset: 0x128BD, size: 0x8, addend: 0x0, symName: __ZNKSt3__114__split_bufferIP6PlayerRNS_9allocatorIS2_EEE9__end_capB7v160006Ev, symObjAddr: 0x4530, symBinAddr: 0x100007640, symSize: 0x20 }
  - { offsetInCU: 0x128E2, offset: 0x128E2, size: 0x8, addend: 0x0, symName: __ZNKSt3__117__compressed_pairIPP6PlayerRNS_9allocatorIS2_EEE5firstB7v160006Ev, symObjAddr: 0x4550, symBinAddr: 0x100007660, symSize: 0x20 }
  - { offsetInCU: 0x12907, offset: 0x12907, size: 0x8, addend: 0x0, symName: __ZNSt3__112basic_stringIcNS_11char_traitsIcEENS_9allocatorIcEEEC2B7v160006IDnEEPKc, symObjAddr: 0x4570, symBinAddr: 0x100007680, symSize: 0x60 }
  - { offsetInCU: 0x12944, offset: 0x12944, size: 0x8, addend: 0x0, symName: __ZNSt3__16vectorIP6PlayerNS_9allocatorIS2_EEE11__make_iterB7v160006EPS2_, symObjAddr: 0x45D0, symBinAddr: 0x1000076E0, symSize: 0x30 }
  - { offsetInCU: 0x12978, offset: 0x12978, size: 0x8, addend: 0x0, symName: __ZNSt3__111__wrap_iterIPP6PlayerEC1B7v160006EPKvS3_, symObjAddr: 0x4600, symBinAddr: 0x100007710, symSize: 0x30 }
  - { offsetInCU: 0x129BD, offset: 0x129BD, size: 0x8, addend: 0x0, symName: __ZNSt3__111__wrap_iterIPP6PlayerEC2B7v160006EPKvS3_, symObjAddr: 0x4630, symBinAddr: 0x100007740, symSize: 0x20 }
  - { offsetInCU: 0x12A02, offset: 0x12A02, size: 0x8, addend: 0x0, symName: __ZNSt3__112basic_stringIcNS_11char_traitsIcEENS_9allocatorIcEEEC1B7v160006EOS5_, symObjAddr: 0x4650, symBinAddr: 0x100007760, symSize: 0x30 }
  - { offsetInCU: 0x12A3A, offset: 0x12A3A, size: 0x8, addend: 0x0, symName: __ZNSt3__112basic_stringIcNS_11char_traitsIcEENS_9allocatorIcEEEC2B7v160006EOS5_, symObjAddr: 0x4680, symBinAddr: 0x100007790, symSize: 0x80 }
  - { offsetInCU: 0x12A72, offset: 0x12A72, size: 0x8, addend: 0x0, symName: __ZNSt3__112basic_stringIcNS_11char_traitsIcEENS_9allocatorIcEEE14__default_initB7v160006Ev, symObjAddr: 0x4700, symBinAddr: 0x100007810, symSize: 0x50 }
  - { offsetInCU: 0x12A97, offset: 0x12A97, size: 0x8, addend: 0x0, symName: __ZNSt3__112basic_stringIcNS_11char_traitsIcEENS_9allocatorIcEEE6appendB7v160006ERKS5_, symObjAddr: 0x4760, symBinAddr: 0x100007870, symSize: 0x50 }
  - { offsetInCU: 0x12ACB, offset: 0x12ACB, size: 0x8, addend: 0x0, symName: __ZNKSt3__112basic_stringIcNS_11char_traitsIcEENS_9allocatorIcEEE4dataB7v160006Ev, symObjAddr: 0x47B0, symBinAddr: 0x1000078C0, symSize: 0x30 }
  - { offsetInCU: 0x12AF0, offset: 0x12AF0, size: 0x8, addend: 0x0, symName: __ZNKSt3__112basic_stringIcNS_11char_traitsIcEENS_9allocatorIcEEE4sizeB7v160006Ev, symObjAddr: 0x47E0, symBinAddr: 0x1000078F0, symSize: 0x50 }
  - { offsetInCU: 0x12B15, offset: 0x12B15, size: 0x8, addend: 0x0, symName: __ZNKSt3__112basic_stringIcNS_11char_traitsIcEENS_9allocatorIcEEE13__get_pointerB7v160006Ev, symObjAddr: 0x4840, symBinAddr: 0x100007950, symSize: 0x50 }
  - { offsetInCU: 0x12B3A, offset: 0x12B3A, size: 0x8, addend: 0x0, symName: __ZNKSt3__112basic_stringIcNS_11char_traitsIcEENS_9allocatorIcEEE18__get_long_pointerB7v160006Ev, symObjAddr: 0x4890, symBinAddr: 0x1000079A0, symSize: 0x20 }
  - { offsetInCU: 0x12B5F, offset: 0x12B5F, size: 0x8, addend: 0x0, symName: __ZNKSt3__112basic_stringIcNS_11char_traitsIcEENS_9allocatorIcEEE19__get_short_pointerB7v160006Ev, symObjAddr: 0x48B0, symBinAddr: 0x1000079C0, symSize: 0x30 }
  - { offsetInCU: 0x12B84, offset: 0x12B84, size: 0x8, addend: 0x0, symName: __ZNSt3__114pointer_traitsIPKcE10pointer_toB7v160006ERS1_, symObjAddr: 0x48E0, symBinAddr: 0x1000079F0, symSize: 0x10 }
  - { offsetInCU: 0x12BA7, offset: 0x12BA7, size: 0x8, addend: 0x0, symName: __ZNKSt3__112basic_stringIcNS_11char_traitsIcEENS_9allocatorIcEEE15__get_long_sizeB7v160006Ev, symObjAddr: 0x48F0, symBinAddr: 0x100007A00, symSize: 0x20 }
  - { offsetInCU: 0x12BCC, offset: 0x12BCC, size: 0x8, addend: 0x0, symName: __ZNKSt3__112basic_stringIcNS_11char_traitsIcEENS_9allocatorIcEEE16__get_short_sizeB7v160006Ev, symObjAddr: 0x4910, symBinAddr: 0x100007A20, symSize: 0x23 }
  - { offsetInCU: 0x5C, offset: 0x12D6E, size: 0x8, addend: 0x0, symName: __ZNSt3__1L19piecewise_constructE, symObjAddr: 0xDAE2, symBinAddr: 0x1000169E8, symSize: 0x0 }
  - { offsetInCU: 0x869C, offset: 0x1B3AE, size: 0x8, addend: 0x0, symName: __ZNSt3__17advanceB7v160006IPK4CardmmvEEvRT_T0_, symObjAddr: 0x8610, symBinAddr: 0x10000E400, symSize: 0x50 }
  - { offsetInCU: 0x8707, offset: 0x1B419, size: 0x8, addend: 0x0, symName: __ZNSt3__17advanceB7v160006IPNS_12basic_stringIcNS_11char_traitsIcEENS_9allocatorIcEEEEmmvEEvRT_T0_, symObjAddr: 0x9050, symBinAddr: 0x10000EE30, symSize: 0x50 }
  - { offsetInCU: 0x8DB1, offset: 0x1BAC3, size: 0x8, addend: 0x0, symName: __ZNSt3__17advanceB7v160006INS_11__wrap_iterIP4CardEEllvEEvRT_T0_, symObjAddr: 0xB420, symBinAddr: 0x100011140, symSize: 0x50 }
  - { offsetInCU: 0xABDA, offset: 0x1D8EC, size: 0x8, addend: 0x0, symName: __ZNSt3__1rsB7v160006IcNS_11char_traitsIcEENS_9allocatorIcEEEERNS_13basic_istreamIT_T0_EES9_RNS_12basic_stringIS6_S7_T1_EE, symObjAddr: 0x710, symBinAddr: 0x100008120, symSize: 0x2E0 }
  - { offsetInCU: 0xACA9, offset: 0x1D9BB, size: 0x8, addend: 0x0, symName: __ZNSt3__1neB7v160006IP4CardEEbRKNS_11__wrap_iterIT_EES7_, symObjAddr: 0x14E0, symBinAddr: 0x100008EA0, symSize: 0x30 }
  - { offsetInCU: 0xACEC, offset: 0x1D9FE, size: 0x8, addend: 0x0, symName: __ZNSt3__1eqB7v160006IcNS_11char_traitsIcEENS_9allocatorIcEEEEbRKNS_12basic_stringIT_T0_T1_EEPKS6_, symObjAddr: 0x1650, symBinAddr: 0x100008F70, symSize: 0x90 }
  - { offsetInCU: 0xAD53, offset: 0x1DA65, size: 0x8, addend: 0x0, symName: __ZNSt3__1eqB7v160006IP4CardEEbRKNS_11__wrap_iterIT_EES7_, symObjAddr: 0x1880, symBinAddr: 0x1000091A0, symSize: 0x40 }
  - { offsetInCU: 0xAD96, offset: 0x1DAA8, size: 0x8, addend: 0x0, symName: __ZNSt3__122__make_exception_guardB7v160006INS_6vectorINS_12basic_stringIcNS_11char_traitsIcEENS_9allocatorIcEEEENS5_IS7_EEE16__destroy_vectorEEENS_28__exception_guard_exceptionsIT_EESC_, symObjAddr: 0x1BE0, symBinAddr: 0x1000094E0, symSize: 0x40 }
  - { offsetInCU: 0xADCB, offset: 0x1DADD, size: 0x8, addend: 0x0, symName: __ZNSt3__119__debug_db_insert_cB7v160006INS_6vectorINS_12basic_stringIcNS_11char_traitsIcEENS_9allocatorIcEEEENS5_IS7_EEEEEEvPT_, symObjAddr: 0x1C50, symBinAddr: 0x100009520, symSize: 0x10 }
  - { offsetInCU: 0xADFC, offset: 0x1DB0E, size: 0x8, addend: 0x0, symName: __ZNSt3__119__allocate_at_leastB7v160006INS_9allocatorINS_12basic_stringIcNS_11char_traitsIcEENS1_IcEEEEEEEENS_19__allocation_resultINS_16allocator_traitsIT_E7pointerEEERSA_m, symObjAddr: 0x1F90, symBinAddr: 0x100009810, symSize: 0x40 }
  - { offsetInCU: 0xAE3F, offset: 0x1DB51, size: 0x8, addend: 0x0, symName: __ZNSt3__130__uninitialized_allocator_copyB7v160006INS_9allocatorINS_12basic_stringIcNS_11char_traitsIcEENS1_IcEEEEEEPS6_S8_S8_EET2_RT_T0_T1_S9_, symObjAddr: 0x2580, symBinAddr: 0x100009A00, symSize: 0x100 }
  - { offsetInCU: 0xAEDD, offset: 0x1DBEF, size: 0x8, addend: 0x0, symName: __ZNSt3__122__make_exception_guardB7v160006INS_29_AllocatorDestroyRangeReverseINS_9allocatorINS_12basic_stringIcNS_11char_traitsIcEENS2_IcEEEEEEPS7_EEEENS_28__exception_guard_exceptionsIT_EESC_, symObjAddr: 0x26E0, symBinAddr: 0x100009B60, symSize: 0x60 }
  - { offsetInCU: 0xAF12, offset: 0x1DC24, size: 0x8, addend: 0x0, symName: __ZNSt3__119__allocator_destroyB7v160006INS_9allocatorINS_12basic_stringIcNS_11char_traitsIcEENS1_IcEEEEEENS_16reverse_iteratorIPS6_EESA_EEvRT_T0_T1_, symObjAddr: 0x2970, symBinAddr: 0x100009DF0, symSize: 0x70 }
  - { offsetInCU: 0xAF75, offset: 0x1DC87, size: 0x8, addend: 0x0, symName: __ZNSt3__1neB7v160006IPNS_12basic_stringIcNS_11char_traitsIcEENS_9allocatorIcEEEES7_EEbRKNS_16reverse_iteratorIT_EERKNS8_IT0_EE, symObjAddr: 0x2A10, symBinAddr: 0x100009E90, symSize: 0x40 }
  - { offsetInCU: 0xAFC1, offset: 0x1DCD3, size: 0x8, addend: 0x0, symName: __ZNSt3__112__to_addressB7v160006INS_16reverse_iteratorIPNS_12basic_stringIcNS_11char_traitsIcEENS_9allocatorIcEEEEEEvEENS_5decayIDTclsr19__to_address_helperIT_EE6__callclsr3stdE7declvalIRKSB_EEEEE4typeESD_, symObjAddr: 0x2A80, symBinAddr: 0x100009ED0, symSize: 0x20 }
  - { offsetInCU: 0xB021, offset: 0x1DD33, size: 0x8, addend: 0x0, symName: __ZNSt3__119__debug_db_insert_cB7v160006INS_6vectorI4CardNS_9allocatorIS2_EEEEEEvPT_, symObjAddr: 0x3270, symBinAddr: 0x10000A130, symSize: 0x10 }
  - { offsetInCU: 0xB052, offset: 0x1DD64, size: 0x8, addend: 0x0, symName: __ZNSt3__119__debug_db_insert_cB7v160006INS_13unordered_mapINS_12basic_stringIcNS_11char_traitsIcEENS_9allocatorIcEEEEiNS_4hashIS7_EENS_8equal_toIS7_EENS5_INS_4pairIKS7_iEEEEEEEEvPT_, symObjAddr: 0x3390, symBinAddr: 0x10000A250, symSize: 0x10 }
  - { offsetInCU: 0xB083, offset: 0x1DD95, size: 0x8, addend: 0x0, symName: __ZNSt3__118__debug_db_erase_cB7v160006INS_12__hash_tableINS_17__hash_value_typeINS_12basic_stringIcNS_11char_traitsIcEENS_9allocatorIcEEEEiEENS_22__unordered_map_hasherIS8_S9_NS_4hashIS8_EENS_8equal_toIS8_EELb1EEENS_21__unordered_map_equalIS8_S9_SE_SC_Lb1EEENS6_IS9_EEEEEEvPT_, symObjAddr: 0x3EC0, symBinAddr: 0x10000A8D0, symSize: 0x10 }
  - { offsetInCU: 0xB0E7, offset: 0x1DDF9, size: 0x8, addend: 0x0, symName: __ZNSt3__17launderB7v160006INS_4pairIKNS_12basic_stringIcNS_11char_traitsIcEENS_9allocatorIcEEEEiEEEEPT_SB_, symObjAddr: 0x4000, symBinAddr: 0x10000AA10, symSize: 0x20 }
  - { offsetInCU: 0xB11E, offset: 0x1DE30, size: 0x8, addend: 0x0, symName: __ZNSt3__19__launderB7v160006INS_4pairIKNS_12basic_stringIcNS_11char_traitsIcEENS_9allocatorIcEEEEiEEEEPT_SB_, symObjAddr: 0x4020, symBinAddr: 0x10000AA30, symSize: 0x10 }
  - { offsetInCU: 0xB155, offset: 0x1DE67, size: 0x8, addend: 0x0, symName: __ZNSt3__13getB7v160006ILm0EKNS_12basic_stringIcNS_11char_traitsIcEENS_9allocatorIcEEEEiEERKNS_13tuple_elementIXT_ENS_4pairIT0_T1_EEE4typeERKSC_, symObjAddr: 0x49C0, symBinAddr: 0x10000B320, symSize: 0x20 }
  - { offsetInCU: 0xB19E, offset: 0x1DEB0, size: 0x8, addend: 0x0, symName: __ZNSt3__13getB7v160006ILm1EKNS_12basic_stringIcNS_11char_traitsIcEENS_9allocatorIcEEEEiEERKNS_13tuple_elementIXT_ENS_4pairIT0_T1_EEE4typeERKSC_, symObjAddr: 0x49E0, symBinAddr: 0x10000B340, symSize: 0x20 }
  - { offsetInCU: 0xB261, offset: 0x1DF73, size: 0x8, addend: 0x0, symName: __ZNSt3__116__do_string_hashB7v160006IPKcEEmT_S3_, symObjAddr: 0x4FF0, symBinAddr: 0x10000B950, symSize: 0x40 }
  - { offsetInCU: 0xB2A7, offset: 0x1DFB9, size: 0x8, addend: 0x0, symName: __ZNSt3__110__loadwordB7v160006ImEET_PKv, symObjAddr: 0x5960, symBinAddr: 0x10000C240, symSize: 0x20 }
  - { offsetInCU: 0xB2EA, offset: 0x1DFFC, size: 0x8, addend: 0x0, symName: __ZNSt3__14swapB7v160006ImEENS_9enable_ifIXaasr21is_move_constructibleIT_EE5valuesr18is_move_assignableIS2_EE5valueEvE4typeERS2_S5_, symObjAddr: 0x5B20, symBinAddr: 0x10000C400, symSize: 0x40 }
  - { offsetInCU: 0xB33B, offset: 0x1E04D, size: 0x8, addend: 0x0, symName: __ZNSt3__110__loadwordB7v160006IjEET_PKv, symObjAddr: 0x5BB0, symBinAddr: 0x10000C490, symSize: 0x20 }
  - { offsetInCU: 0xB37E, offset: 0x1E090, size: 0x8, addend: 0x0, symName: __ZNSt3__17launderB7v160006IKNS_4pairIKNS_12basic_stringIcNS_11char_traitsIcEENS_9allocatorIcEEEEiEEEEPT_SC_, symObjAddr: 0x5E70, symBinAddr: 0x10000C5E0, symSize: 0x20 }
  - { offsetInCU: 0xB3B5, offset: 0x1E0C7, size: 0x8, addend: 0x0, symName: __ZNSt3__19__launderB7v160006IKNS_4pairIKNS_12basic_stringIcNS_11char_traitsIcEENS_9allocatorIcEEEEiEEEEPT_SC_, symObjAddr: 0x5E90, symBinAddr: 0x10000C600, symSize: 0x10 }
  - { offsetInCU: 0xB3EC, offset: 0x1E0FE, size: 0x8, addend: 0x0, symName: __ZNSt3__116__constrain_hashB7v160006Emm, symObjAddr: 0x5EA0, symBinAddr: 0x10000C610, symSize: 0x80 }
  - { offsetInCU: 0xB426, offset: 0x1E138, size: 0x8, addend: 0x0, symName: __ZNSt3__116__is_hash_power2B7v160006Em, symObjAddr: 0x6010, symBinAddr: 0x10000C750, symSize: 0x40 }
  - { offsetInCU: 0xB452, offset: 0x1E164, size: 0x8, addend: 0x0, symName: __ZNSt3__1eqB7v160006INS_9allocatorIcEEEEbRKNS_12basic_stringIcNS_11char_traitsIcEET_EES9_, symObjAddr: 0x60D0, symBinAddr: 0x10000C810, symSize: 0x110 }
  - { offsetInCU: 0xB4C5, offset: 0x1E1D7, size: 0x8, addend: 0x0, symName: __ZNSt3__118__constexpr_memcmpB7v160006IcEEiPKT_S3_m, symObjAddr: 0x6240, symBinAddr: 0x10000C980, symSize: 0x30 }
  - { offsetInCU: 0xB516, offset: 0x1E228, size: 0x8, addend: 0x0, symName: __ZNSt3__116__next_hash_pow2B7v160006Em, symObjAddr: 0x6730, symBinAddr: 0x10000CE70, symSize: 0x60 }
  - { offsetInCU: 0xB542, offset: 0x1E254, size: 0x8, addend: 0x0, symName: __ZNSt3__125__debug_db_invalidate_allB7v160006INS_12__hash_tableINS_17__hash_value_typeINS_12basic_stringIcNS_11char_traitsIcEENS_9allocatorIcEEEEiEENS_22__unordered_map_hasherIS8_S9_NS_4hashIS8_EENS_8equal_toIS8_EELb1EEENS_21__unordered_map_equalIS8_S9_SE_SC_Lb1EEENS6_IS9_EEEEEEvPT_, symObjAddr: 0x6790, symBinAddr: 0x10000CED0, symSize: 0x10 }
  - { offsetInCU: 0xB573, offset: 0x1E285, size: 0x8, addend: 0x0, symName: __ZNSt3__112__libcpp_clzB7v160006Em, symObjAddr: 0x68F0, symBinAddr: 0x10000D030, symSize: 0x20 }
  - { offsetInCU: 0xBB47, offset: 0x1E859, size: 0x8, addend: 0x0, symName: __ZNSt3__125__debug_db_invalidate_allB7v160006INS_12basic_stringIcNS_11char_traitsIcEENS_9allocatorIcEEEEEEvPT_, symObjAddr: 0x8290, symBinAddr: 0x10000E080, symSize: 0x10 }
  - { offsetInCU: 0xBB78, offset: 0x1E88A, size: 0x8, addend: 0x0, symName: __ZNSt3__18distanceB7v160006IPK4CardEENS_15iterator_traitsIT_E15difference_typeES5_S5_, symObjAddr: 0x85E0, symBinAddr: 0x10000E3D0, symSize: 0x30 }
  - { offsetInCU: 0xBBBB, offset: 0x1E8CD, size: 0x8, addend: 0x0, symName: __ZNSt3__14copyB7v160006IPK4CardPS1_EET0_T_S6_S5_, symObjAddr: 0x8660, symBinAddr: 0x10000E450, symSize: 0x40 }
  - { offsetInCU: 0xBC15, offset: 0x1E927, size: 0x8, addend: 0x0, symName: __ZNSt3__125__debug_db_invalidate_allB7v160006INS_6vectorI4CardNS_9allocatorIS2_EEEEEEvPT_, symObjAddr: 0x8950, symBinAddr: 0x10000E740, symSize: 0x10 }
  - { offsetInCU: 0xBC46, offset: 0x1E958, size: 0x8, addend: 0x0, symName: __ZNSt3__110__distanceB7v160006IPK4CardEENS_15iterator_traitsIT_E15difference_typeES5_S5_NS_26random_access_iterator_tagE, symObjAddr: 0x8960, symBinAddr: 0x10000E750, symSize: 0x30 }
  - { offsetInCU: 0xBC93, offset: 0x1E9A5, size: 0x8, addend: 0x0, symName: __ZNSt3__19__advanceB7v160006IPK4CardEEvRT_NS_15iterator_traitsIS4_E15difference_typeENS_26random_access_iterator_tagE, symObjAddr: 0x89A0, symBinAddr: 0x10000E780, symSize: 0x30 }
  - { offsetInCU: 0xBCDC, offset: 0x1E9EE, size: 0x8, addend: 0x0, symName: __ZNSt3__16__copyB7v160006INS_17_ClassicAlgPolicyEPK4CardS4_PS2_EENS_4pairIT0_T2_EES7_T1_S8_, symObjAddr: 0x89D0, symBinAddr: 0x10000E7B0, symSize: 0x40 }
  - { offsetInCU: 0xBD48, offset: 0x1EA5A, size: 0x8, addend: 0x0, symName: __ZNSt3__123__dispatch_copy_or_moveB7v160006INS_17_ClassicAlgPolicyENS_11__copy_loopIS1_EENS_14__copy_trivialEPK4CardS7_PS5_EENS_4pairIT2_T4_EESA_T3_SB_, symObjAddr: 0x8A10, symBinAddr: 0x10000E7F0, symSize: 0x40 }
  - { offsetInCU: 0xBDC6, offset: 0x1EAD8, size: 0x8, addend: 0x0, symName: __ZNSt3__121__unwrap_and_dispatchB7v160006INS_10__overloadINS_11__copy_loopINS_17_ClassicAlgPolicyEEENS_14__copy_trivialEEEPK4CardS9_PS7_Li0EEENS_4pairIT0_T2_EESC_T1_SD_, symObjAddr: 0x8A50, symBinAddr: 0x10000E830, symSize: 0xB0 }
  - { offsetInCU: 0xBE55, offset: 0x1EB67, size: 0x8, addend: 0x0, symName: __ZNSt3__114__unwrap_rangeB7v160006IPK4CardS3_EENS_4pairIT0_S5_EET_S7_, symObjAddr: 0x8B00, symBinAddr: 0x10000E8E0, symSize: 0x50 }
  - { offsetInCU: 0xC045, offset: 0x1ED57, size: 0x8, addend: 0x0, symName: __ZNSt3__113__unwrap_iterB7v160006IP4CardNS_18__unwrap_iter_implIS2_Lb1EEELi0EEEDTclsrT0_8__unwrapclsr3stdE7declvalIT_EEEES6_, symObjAddr: 0x8BD0, symBinAddr: 0x10000E9B0, symSize: 0x20 }
  - { offsetInCU: 0xC089, offset: 0x1ED9B, size: 0x8, addend: 0x0, symName: __ZNSt3__19make_pairB7v160006IPK4CardPS1_EENS_4pairINS_18__unwrap_ref_decayIT_E4typeENS6_IT0_E4typeEEEOS7_OSA_, symObjAddr: 0x8BF0, symBinAddr: 0x10000E9D0, symSize: 0x30 }
  - { offsetInCU: 0xC0D8, offset: 0x1EDEA, size: 0x8, addend: 0x0, symName: __ZNSt3__114__rewrap_rangeB7v160006IPK4CardS3_EET_S4_T0_, symObjAddr: 0x8C20, symBinAddr: 0x10000EA00, symSize: 0x30 }
  - { offsetInCU: 0xC124, offset: 0x1EE36, size: 0x8, addend: 0x0, symName: __ZNSt3__113__rewrap_iterB7v160006IP4CardS2_NS_18__unwrap_iter_implIS2_Lb1EEEEET_S5_T0_, symObjAddr: 0x8C50, symBinAddr: 0x10000EA30, symSize: 0x40 }
  - { offsetInCU: 0xC179, offset: 0x1EE8B, size: 0x8, addend: 0x0, symName: __ZNSt3__19make_pairB7v160006IPK4CardS3_EENS_4pairINS_18__unwrap_ref_decayIT_E4typeENS5_IT0_E4typeEEEOS6_OS9_, symObjAddr: 0x8C90, symBinAddr: 0x10000EA70, symSize: 0x30 }
  - { offsetInCU: 0xC1C8, offset: 0x1EEDA, size: 0x8, addend: 0x0, symName: __ZNSt3__113__unwrap_iterB7v160006IPK4CardNS_18__unwrap_iter_implIS3_Lb1EEELi0EEEDTclsrT0_8__unwrapclsr3stdE7declvalIT_EEEES7_, symObjAddr: 0x8CC0, symBinAddr: 0x10000EAA0, symSize: 0x20 }
  - { offsetInCU: 0xC333, offset: 0x1F045, size: 0x8, addend: 0x0, symName: __ZNSt3__112__to_addressB7v160006IK4CardEEPT_S4_, symObjAddr: 0x8D60, symBinAddr: 0x10000EB40, symSize: 0x10 }
  - { offsetInCU: 0xC368, offset: 0x1F07A, size: 0x8, addend: 0x0, symName: __ZNSt3__18distanceB7v160006IPNS_12basic_stringIcNS_11char_traitsIcEENS_9allocatorIcEEEEEENS_15iterator_traitsIT_E15difference_typeES9_S9_, symObjAddr: 0x9020, symBinAddr: 0x10000EE00, symSize: 0x30 }
  - { offsetInCU: 0xC3AB, offset: 0x1F0BD, size: 0x8, addend: 0x0, symName: __ZNSt3__14copyB7v160006IPNS_12basic_stringIcNS_11char_traitsIcEENS_9allocatorIcEEEES7_EET0_T_S9_S8_, symObjAddr: 0x90A0, symBinAddr: 0x10000EE80, symSize: 0x40 }
  - { offsetInCU: 0xC405, offset: 0x1F117, size: 0x8, addend: 0x0, symName: __ZNSt3__125__debug_db_invalidate_allB7v160006INS_6vectorINS_12basic_stringIcNS_11char_traitsIcEENS_9allocatorIcEEEENS5_IS7_EEEEEEvPT_, symObjAddr: 0x9260, symBinAddr: 0x10000F040, symSize: 0x10 }
  - { offsetInCU: 0xC436, offset: 0x1F148, size: 0x8, addend: 0x0, symName: __ZNSt3__110__distanceB7v160006IPNS_12basic_stringIcNS_11char_traitsIcEENS_9allocatorIcEEEEEENS_15iterator_traitsIT_E15difference_typeES9_S9_NS_26random_access_iterator_tagE, symObjAddr: 0x9270, symBinAddr: 0x10000F050, symSize: 0x30 }
  - { offsetInCU: 0xC483, offset: 0x1F195, size: 0x8, addend: 0x0, symName: __ZNSt3__19__advanceB7v160006IPNS_12basic_stringIcNS_11char_traitsIcEENS_9allocatorIcEEEEEEvRT_NS_15iterator_traitsIS8_E15difference_typeENS_26random_access_iterator_tagE, symObjAddr: 0x92A0, symBinAddr: 0x10000F080, symSize: 0x20 }
  - { offsetInCU: 0xC4CC, offset: 0x1F1DE, size: 0x8, addend: 0x0, symName: __ZNSt3__16__copyB7v160006INS_17_ClassicAlgPolicyEPNS_12basic_stringIcNS_11char_traitsIcEENS_9allocatorIcEEEES8_S8_EENS_4pairIT0_T2_EESA_T1_SB_, symObjAddr: 0x92C0, symBinAddr: 0x10000F0A0, symSize: 0x40 }
  - { offsetInCU: 0xC538, offset: 0x1F24A, size: 0x8, addend: 0x0, symName: __ZNSt3__123__dispatch_copy_or_moveB7v160006INS_17_ClassicAlgPolicyENS_11__copy_loopIS1_EENS_14__copy_trivialEPNS_12basic_stringIcNS_11char_traitsIcEENS_9allocatorIcEEEESB_SB_EENS_4pairIT2_T4_EESD_T3_SE_, symObjAddr: 0x9300, symBinAddr: 0x10000F0E0, symSize: 0x40 }
  - { offsetInCU: 0xC5B6, offset: 0x1F2C8, size: 0x8, addend: 0x0, symName: __ZNSt3__121__unwrap_and_dispatchB7v160006INS_10__overloadINS_11__copy_loopINS_17_ClassicAlgPolicyEEENS_14__copy_trivialEEEPNS_12basic_stringIcNS_11char_traitsIcEENS_9allocatorIcEEEESD_SD_Li0EEENS_4pairIT0_T2_EESF_T1_SG_, symObjAddr: 0x9340, symBinAddr: 0x10000F120, symSize: 0xB0 }
  - { offsetInCU: 0xC645, offset: 0x1F357, size: 0x8, addend: 0x0, symName: __ZNSt3__114__unwrap_rangeB7v160006IPNS_12basic_stringIcNS_11char_traitsIcEENS_9allocatorIcEEEES7_EENS_4pairIT0_S9_EET_SB_, symObjAddr: 0x93F0, symBinAddr: 0x10000F1D0, symSize: 0x50 }
  - { offsetInCU: 0xC765, offset: 0x1F477, size: 0x8, addend: 0x0, symName: __ZNSt3__113__unwrap_iterB7v160006IPNS_12basic_stringIcNS_11char_traitsIcEENS_9allocatorIcEEEENS_18__unwrap_iter_implIS7_Lb1EEELi0EEEDTclsrT0_8__unwrapclsr3stdE7declvalIT_EEEESB_, symObjAddr: 0x94C0, symBinAddr: 0x10000F2A0, symSize: 0x20 }
  - { offsetInCU: 0xC7A9, offset: 0x1F4BB, size: 0x8, addend: 0x0, symName: __ZNSt3__19make_pairB7v160006IPNS_12basic_stringIcNS_11char_traitsIcEENS_9allocatorIcEEEES7_EENS_4pairINS_18__unwrap_ref_decayIT_E4typeENS9_IT0_E4typeEEEOSA_OSD_, symObjAddr: 0x94E0, symBinAddr: 0x10000F2C0, symSize: 0x30 }
  - { offsetInCU: 0xC7F8, offset: 0x1F50A, size: 0x8, addend: 0x0, symName: __ZNSt3__114__rewrap_rangeB7v160006IPNS_12basic_stringIcNS_11char_traitsIcEENS_9allocatorIcEEEES7_EET_S8_T0_, symObjAddr: 0x9510, symBinAddr: 0x10000F2F0, symSize: 0x30 }
  - { offsetInCU: 0xC844, offset: 0x1F556, size: 0x8, addend: 0x0, symName: __ZNSt3__113__rewrap_iterB7v160006IPNS_12basic_stringIcNS_11char_traitsIcEENS_9allocatorIcEEEES7_NS_18__unwrap_iter_implIS7_Lb1EEEEET_SA_T0_, symObjAddr: 0x9540, symBinAddr: 0x10000F320, symSize: 0x40 }
  - { offsetInCU: 0xC93F, offset: 0x1F651, size: 0x8, addend: 0x0, symName: __ZNSt3__113__rewrap_iterB7v160006IPK4CardS3_NS_18__unwrap_iter_implIS3_Lb1EEEEET_S6_T0_, symObjAddr: 0x97E0, symBinAddr: 0x10000F5C0, symSize: 0x40 }
  - { offsetInCU: 0xC994, offset: 0x1F6A6, size: 0x8, addend: 0x0, symName: __ZNSt3__130__uninitialized_allocator_copyB7v160006INS_9allocatorI4CardEEPKS2_S5_PS2_EET2_RT_T0_T1_S7_, symObjAddr: 0x9910, symBinAddr: 0x10000F6F0, symSize: 0x100 }
  - { offsetInCU: 0xCA32, offset: 0x1F744, size: 0x8, addend: 0x0, symName: __ZNSt3__122__make_exception_guardB7v160006INS_29_AllocatorDestroyRangeReverseINS_9allocatorI4CardEEPS3_EEEENS_28__exception_guard_exceptionsIT_EES8_, symObjAddr: 0x9A70, symBinAddr: 0x10000F850, symSize: 0x60 }
  - { offsetInCU: 0xCA67, offset: 0x1F779, size: 0x8, addend: 0x0, symName: __ZNSt3__119__allocator_destroyB7v160006INS_9allocatorI4CardEENS_16reverse_iteratorIPS2_EES6_EEvRT_T0_T1_, symObjAddr: 0x9D00, symBinAddr: 0x10000FAE0, symSize: 0x70 }
  - { offsetInCU: 0xCACA, offset: 0x1F7DC, size: 0x8, addend: 0x0, symName: __ZNSt3__1neB7v160006IP4CardS2_EEbRKNS_16reverse_iteratorIT_EERKNS3_IT0_EE, symObjAddr: 0x9DA0, symBinAddr: 0x10000FB80, symSize: 0x40 }
  - { offsetInCU: 0xCB16, offset: 0x1F828, size: 0x8, addend: 0x0, symName: __ZNSt3__112__to_addressB7v160006INS_16reverse_iteratorIP4CardEEvEENS_5decayIDTclsr19__to_address_helperIT_EE6__callclsr3stdE7declvalIRKS6_EEEEE4typeES8_, symObjAddr: 0x9DE0, symBinAddr: 0x10000FBC0, symSize: 0x20 }
  - { offsetInCU: 0xCB76, offset: 0x1F888, size: 0x8, addend: 0x0, symName: __ZNSt3__119__allocate_at_leastB7v160006INS_9allocatorI4CardEEEENS_19__allocation_resultINS_16allocator_traitsIT_E7pointerEEERS6_m, symObjAddr: 0xA0B0, symBinAddr: 0x10000FE90, symSize: 0x40 }
  - { offsetInCU: 0xCBB9, offset: 0x1F8CB, size: 0x8, addend: 0x0, symName: __ZNSt3__142__uninitialized_allocator_move_if_noexceptB7v160006INS_9allocatorI4CardEENS_16reverse_iteratorIPS2_EES6_S6_EET2_RT_T0_T1_S7_, symObjAddr: 0xA770, symBinAddr: 0x100010550, symSize: 0x170 }
  - { offsetInCU: 0xCC58, offset: 0x1F96A, size: 0x8, addend: 0x0, symName: __ZNSt3__14swapB7v160006IP4CardEENS_9enable_ifIXaasr21is_move_constructibleIT_EE5valuesr18is_move_assignableIS4_EE5valueEvE4typeERS4_S7_, symObjAddr: 0xA8E0, symBinAddr: 0x1000106C0, symSize: 0x40 }
  - { offsetInCU: 0xCCA9, offset: 0x1F9BB, size: 0x8, addend: 0x0, symName: __ZNSt3__122__make_exception_guardB7v160006INS_29_AllocatorDestroyRangeReverseINS_9allocatorI4CardEENS_16reverse_iteratorIPS3_EEEEEENS_28__exception_guard_exceptionsIT_EESA_, symObjAddr: 0xA920, symBinAddr: 0x100010700, symSize: 0x60 }
  - { offsetInCU: 0xCCDE, offset: 0x1F9F0, size: 0x8, addend: 0x0, symName: __ZNSt3__115__debug_db_swapB7v160006INS_6vectorINS_12basic_stringIcNS_11char_traitsIcEENS_9allocatorIcEEEENS5_IS7_EEEEEEvPT_SB_, symObjAddr: 0xAD30, symBinAddr: 0x100010AE0, symSize: 0x10 }
  - { offsetInCU: 0xCD1D, offset: 0x1FA2F, size: 0x8, addend: 0x0, symName: __ZNSt3__119__allocator_destroyB7v160006INS_9allocatorI4CardEENS_16reverse_iteratorINS4_IPS2_EEEES7_EEvRT_T0_T1_, symObjAddr: 0xAF00, symBinAddr: 0x100010C20, symSize: 0x70 }
  - { offsetInCU: 0xCD80, offset: 0x1FA92, size: 0x8, addend: 0x0, symName: __ZNSt3__1neB7v160006INS_16reverse_iteratorIP4CardEES4_EEbRKNS1_IT_EERKNS1_IT0_EE, symObjAddr: 0xAFA0, symBinAddr: 0x100010CC0, symSize: 0x50 }
  - { offsetInCU: 0xCDCC, offset: 0x1FADE, size: 0x8, addend: 0x0, symName: __ZNSt3__112__to_addressB7v160006INS_16reverse_iteratorINS1_IP4CardEEEEvEENS_5decayIDTclsr19__to_address_helperIT_EE6__callclsr3stdE7declvalIRKS7_EEEEE4typeES9_, symObjAddr: 0xAFF0, symBinAddr: 0x100010D10, symSize: 0x20 }
  - { offsetInCU: 0xCE2C, offset: 0x1FB3E, size: 0x8, addend: 0x0, symName: __ZNSt3__1miB7v160006IPK4CardPS1_EEDTmicldtfp_4baseEcldtfp0_4baseEERKNS_11__wrap_iterIT_EERKNS6_IT0_EE, symObjAddr: 0xB3A0, symBinAddr: 0x1000110C0, symSize: 0x40 }
  - { offsetInCU: 0xCE78, offset: 0x1FB8A, size: 0x8, addend: 0x0, symName: __ZNSt3__18distanceB7v160006INS_11__wrap_iterIP4CardEEEENS_15iterator_traitsIT_E15difference_typeES6_S6_, symObjAddr: 0xB3E0, symBinAddr: 0x100011100, symSize: 0x40 }
  - { offsetInCU: 0xCEBB, offset: 0x1FBCD, size: 0x8, addend: 0x0, symName: __ZNSt3__14copyB7v160006INS_11__wrap_iterIP4CardEES3_EET0_T_S6_S5_, symObjAddr: 0xB650, symBinAddr: 0x100011370, symSize: 0x50 }
  - { offsetInCU: 0xCF15, offset: 0x1FC27, size: 0x8, addend: 0x0, symName: __ZNSt3__110__distanceB7v160006INS_11__wrap_iterIP4CardEEEENS_15iterator_traitsIT_E15difference_typeES6_S6_NS_26random_access_iterator_tagE, symObjAddr: 0xB920, symBinAddr: 0x100011640, symSize: 0x30 }
  - { offsetInCU: 0xCF62, offset: 0x1FC74, size: 0x8, addend: 0x0, symName: __ZNSt3__1miB7v160006IP4CardS2_EEDTmicldtfp_4baseEcldtfp0_4baseEERKNS_11__wrap_iterIT_EERKNS4_IT0_EE, symObjAddr: 0xB950, symBinAddr: 0x100011670, symSize: 0x40 }
  - { offsetInCU: 0xCFAE, offset: 0x1FCC0, size: 0x8, addend: 0x0, symName: __ZNSt3__121__convert_to_integralB7v160006El, symObjAddr: 0xB990, symBinAddr: 0x1000116B0, symSize: 0x10 }
  - { offsetInCU: 0xCFDA, offset: 0x1FCEC, size: 0x8, addend: 0x0, symName: __ZNSt3__19__advanceB7v160006INS_11__wrap_iterIP4CardEEEEvRT_NS_15iterator_traitsIS5_E15difference_typeENS_26random_access_iterator_tagE, symObjAddr: 0xB9A0, symBinAddr: 0x1000116C0, symSize: 0x30 }
  - { offsetInCU: 0xD023, offset: 0x1FD35, size: 0x8, addend: 0x0, symName: __ZNSt3__130__uninitialized_allocator_copyB7v160006INS_9allocatorI4CardEENS_11__wrap_iterIPS2_EES6_S5_EET2_RT_T0_T1_S7_, symObjAddr: 0xBA00, symBinAddr: 0x100011720, symSize: 0x120 }
  - { offsetInCU: 0xD0C1, offset: 0x1FDD3, size: 0x8, addend: 0x0, symName: __ZNSt3__113move_backwardB7v160006IP4CardS2_EET0_T_S4_S3_, symObjAddr: 0xBB80, symBinAddr: 0x1000118A0, symSize: 0x40 }
  - { offsetInCU: 0xD11B, offset: 0x1FE2D, size: 0x8, addend: 0x0, symName: __ZNSt3__115__move_backwardB7v160006INS_17_ClassicAlgPolicyEP4CardS3_S3_EENS_4pairIT0_T2_EES5_T1_S6_, symObjAddr: 0xBBC0, symBinAddr: 0x1000118E0, symSize: 0x40 }
  - { offsetInCU: 0xD187, offset: 0x1FE99, size: 0x8, addend: 0x0, symName: __ZNSt3__123__dispatch_copy_or_moveB7v160006INS_17_ClassicAlgPolicyENS_20__move_backward_loopIS1_EENS_23__move_backward_trivialEP4CardS6_S6_EENS_4pairIT2_T4_EES8_T3_S9_, symObjAddr: 0xBC00, symBinAddr: 0x100011920, symSize: 0x40 }
  - { offsetInCU: 0xD205, offset: 0x1FF17, size: 0x8, addend: 0x0, symName: __ZNSt3__121__unwrap_and_dispatchB7v160006INS_10__overloadINS_20__move_backward_loopINS_17_ClassicAlgPolicyEEENS_23__move_backward_trivialEEEP4CardS8_S8_Li0EEENS_4pairIT0_T2_EESA_T1_SB_, symObjAddr: 0xBC40, symBinAddr: 0x100011960, symSize: 0xB0 }
  - { offsetInCU: 0xD294, offset: 0x1FFA6, size: 0x8, addend: 0x0, symName: __ZNSt3__114__unwrap_rangeB7v160006IP4CardS2_EENS_4pairIT0_S4_EET_S6_, symObjAddr: 0xBCF0, symBinAddr: 0x100011A10, symSize: 0x50 }
  - { offsetInCU: 0xD406, offset: 0x20118, size: 0x8, addend: 0x0, symName: __ZNSt3__19make_pairB7v160006IP4CardS2_EENS_4pairINS_18__unwrap_ref_decayIT_E4typeENS4_IT0_E4typeEEEOS5_OS8_, symObjAddr: 0xBDE0, symBinAddr: 0x100011B00, symSize: 0x30 }
  - { offsetInCU: 0xD455, offset: 0x20167, size: 0x8, addend: 0x0, symName: __ZNSt3__114__rewrap_rangeB7v160006IP4CardS2_EET_S3_T0_, symObjAddr: 0xBE10, symBinAddr: 0x100011B30, symSize: 0x30 }
  - { offsetInCU: 0xD52E, offset: 0x20240, size: 0x8, addend: 0x0, symName: __ZNSt3__16__copyB7v160006INS_17_ClassicAlgPolicyENS_11__wrap_iterIP4CardEES5_S4_EENS_4pairIT0_T2_EES7_T1_S8_, symObjAddr: 0xC320, symBinAddr: 0x100012040, symSize: 0x50 }
  - { offsetInCU: 0xD59A, offset: 0x202AC, size: 0x8, addend: 0x0, symName: __ZNSt3__123__dispatch_copy_or_moveB7v160006INS_17_ClassicAlgPolicyENS_11__copy_loopIS1_EENS_14__copy_trivialENS_11__wrap_iterIP4CardEES8_S7_EENS_4pairIT2_T4_EESA_T3_SB_, symObjAddr: 0xC370, symBinAddr: 0x100012090, symSize: 0x50 }
  - { offsetInCU: 0xD618, offset: 0x2032A, size: 0x8, addend: 0x0, symName: __ZNSt3__121__unwrap_and_dispatchB7v160006INS_10__overloadINS_11__copy_loopINS_17_ClassicAlgPolicyEEENS_14__copy_trivialEEENS_11__wrap_iterIP4CardEESA_S9_Li0EEENS_4pairIT0_T2_EESC_T1_SD_, symObjAddr: 0xC3C0, symBinAddr: 0x1000120E0, symSize: 0xD0 }
  - { offsetInCU: 0xD6A7, offset: 0x203B9, size: 0x8, addend: 0x0, symName: __ZNSt3__114__unwrap_rangeB7v160006INS_11__wrap_iterIP4CardEES3_EENS_4pairIT0_S6_EET_S8_, symObjAddr: 0xC490, symBinAddr: 0x1000121B0, symSize: 0x60 }
  - { offsetInCU: 0xD6F3, offset: 0x20405, size: 0x8, addend: 0x0, symName: __ZNSt3__19make_pairB7v160006INS_11__wrap_iterIP4CardEES3_EENS_4pairINS_18__unwrap_ref_decayIT_E4typeENS6_IT0_E4typeEEEOS7_OSA_, symObjAddr: 0xC570, symBinAddr: 0x100012290, symSize: 0x30 }
  - { offsetInCU: 0xD742, offset: 0x20454, size: 0x8, addend: 0x0, symName: __ZNSt3__114__rewrap_rangeB7v160006INS_11__wrap_iterIP4CardEES3_EET_S5_T0_, symObjAddr: 0xC5A0, symBinAddr: 0x1000122C0, symSize: 0x40 }
  - { offsetInCU: 0xD78E, offset: 0x204A0, size: 0x8, addend: 0x0, symName: __ZNSt3__113__unwrap_iterB7v160006INS_11__wrap_iterIP4CardEENS_18__unwrap_iter_implIS4_Lb1EEELi0EEEDTclsrT0_8__unwrapclsr3stdE7declvalIT_EEEES8_, symObjAddr: 0xC5E0, symBinAddr: 0x100012300, symSize: 0x30 }
  - { offsetInCU: 0xD825, offset: 0x20537, size: 0x8, addend: 0x0, symName: __ZNSt3__112__to_addressB7v160006INS_11__wrap_iterIP4CardEEvEENS_5decayIDTclsr19__to_address_helperIT_EE6__callclsr3stdE7declvalIRKS6_EEEEE4typeES8_, symObjAddr: 0xC630, symBinAddr: 0x100012350, symSize: 0x20 }
  - { offsetInCU: 0xD9D9, offset: 0x206EB, size: 0x8, addend: 0x0, symName: __ZNSt3__113__rewrap_iterB7v160006INS_11__wrap_iterIP4CardEES3_NS_18__unwrap_iter_implIS4_Lb1EEEEET_S7_T0_, symObjAddr: 0xC710, symBinAddr: 0x100012430, symSize: 0x50 }
  - { offsetInCU: 0xDA2E, offset: 0x20740, size: 0x8, addend: 0x0, symName: __ZNSt3__142__uninitialized_allocator_move_if_noexceptB7v160006INS_9allocatorI4CardEEPS2_S4_S4_EET2_RT_T0_T1_S5_, symObjAddr: 0xC8A0, symBinAddr: 0x1000125C0, symSize: 0x100 }
  - { offsetInCU: 0xDB03, offset: 0x20815, size: 0x8, addend: 0x0, symName: __ZNSt3__116forward_as_tupleB7v160006IJNS_12basic_stringIcNS_11char_traitsIcEENS_9allocatorIcEEEEEEENS_5tupleIJDpOT_EEESA_, symObjAddr: 0xD0A0, symBinAddr: 0x100012D70, symSize: 0x30 }
  - { offsetInCU: 0xDB3C, offset: 0x2084E, size: 0x8, addend: 0x0, symName: __ZNSt3__116forward_as_tupleB7v160006IJEEENS_5tupleIJDpOT_EEES4_, symObjAddr: 0xD0D0, symBinAddr: 0x100012DA0, symSize: 0x10 }
  - { offsetInCU: 0xDB6C, offset: 0x2087E, size: 0x8, addend: 0x0, symName: __ZNSt3__13getB7v160006ILm0EJONS_12basic_stringIcNS_11char_traitsIcEENS_9allocatorIcEEEEEEERNS_13tuple_elementIXT_ENS_5tupleIJDpT0_EEEE4typeERSC_, symObjAddr: 0xD3A0, symBinAddr: 0x100013070, symSize: 0x20 }
  - { offsetInCU: 0xE9D2, offset: 0x216E4, size: 0x8, addend: 0x0, symName: __ZNSt3__16vectorI4CardNS_9allocatorIS1_EEE26__swap_out_circular_bufferERNS_14__split_bufferIS1_RS3_EE, symObjAddr: 0xA420, symBinAddr: 0x100010200, symSize: 0x130 }
  - { offsetInCU: 0xEA4F, offset: 0x21761, size: 0x8, addend: 0x0, symName: __ZNSt3__16vectorI4CardNS_9allocatorIS1_EEE26__swap_out_circular_bufferERNS_14__split_bufferIS1_RS3_EEPS1_, symObjAddr: 0xB790, symBinAddr: 0x1000114B0, symSize: 0x170 }
  - { offsetInCU: 0x10B5E, offset: 0x23870, size: 0x8, addend: 0x0, symName: __ZN6PlayerC2Ef, symObjAddr: 0x0, symBinAddr: 0x100007A50, symSize: 0x5A0 }
  - { offsetInCU: 0x10B99, offset: 0x238AB, size: 0x8, addend: 0x0, symName: __ZNSt3__112basic_stringIcNS_11char_traitsIcEENS_9allocatorIcEEEC1B7v160006Ev, symObjAddr: 0x5A0, symBinAddr: 0x100007FF0, symSize: 0x20 }
  - { offsetInCU: 0x10BC2, offset: 0x238D4, size: 0x8, addend: 0x0, symName: __ZNSt3__16vectorI4CardNS_9allocatorIS1_EEEC1B7v160006Ev, symObjAddr: 0x5C0, symBinAddr: 0x100008010, symSize: 0x20 }
  - { offsetInCU: 0x10BEB, offset: 0x238FD, size: 0x8, addend: 0x0, symName: __ZNSt3__113unordered_mapINS_12basic_stringIcNS_11char_traitsIcEENS_9allocatorIcEEEEiNS_4hashIS6_EENS_8equal_toIS6_EENS4_INS_4pairIKS6_iEEEEEC1B7v160006Ev, symObjAddr: 0x5E0, symBinAddr: 0x100008030, symSize: 0x20 }
  - { offsetInCU: 0x10C2F, offset: 0x23941, size: 0x8, addend: 0x0, symName: __ZNSt3__14pairIKNS_12basic_stringIcNS_11char_traitsIcEENS_9allocatorIcEEEEiEC1B7v160006IRA2_KciLPv0EEEOT_OT0_, symObjAddr: 0x600, symBinAddr: 0x100008050, symSize: 0x30 }
  - { offsetInCU: 0x10CA2, offset: 0x239B4, size: 0x8, addend: 0x0, symName: __ZNSt3__14pairIKNS_12basic_stringIcNS_11char_traitsIcEENS_9allocatorIcEEEEiEC1B7v160006IRA3_KciLPv0EEEOT_OT0_, symObjAddr: 0x630, symBinAddr: 0x100008080, symSize: 0x30 }
  - { offsetInCU: 0x10CFF, offset: 0x23A11, size: 0x8, addend: 0x0, symName: __ZNSt3__14pairIKNS_12basic_stringIcNS_11char_traitsIcEENS_9allocatorIcEEEEiED1Ev, symObjAddr: 0x660, symBinAddr: 0x1000080B0, symSize: 0x20 }
  - { offsetInCU: 0x10D2A, offset: 0x23A3C, size: 0x8, addend: 0x0, symName: __ZNSt3__113unordered_mapINS_12basic_stringIcNS_11char_traitsIcEENS_9allocatorIcEEEEiNS_4hashIS6_EENS_8equal_toIS6_EENS4_INS_4pairIKS6_iEEEEEaSESt16initializer_listISD_E, symObjAddr: 0x680, symBinAddr: 0x1000080D0, symSize: 0x50 }
  - { offsetInCU: 0x10D5F, offset: 0x23A71, size: 0x8, addend: 0x0, symName: __ZNSt16initializer_listI4CardEC1B7v160006Ev, symObjAddr: 0x9F0, symBinAddr: 0x100008400, symSize: 0x20 }
  - { offsetInCU: 0x10D88, offset: 0x23A9A, size: 0x8, addend: 0x0, symName: __ZNSt3__16vectorI4CardNS_9allocatorIS1_EEEaSB7v160006ESt16initializer_listIS1_E, symObjAddr: 0xA10, symBinAddr: 0x100008420, symSize: 0x50 }
  - { offsetInCU: 0x10DBC, offset: 0x23ACE, size: 0x8, addend: 0x0, symName: __ZNSt3__113unordered_mapINS_12basic_stringIcNS_11char_traitsIcEENS_9allocatorIcEEEEiNS_4hashIS6_EENS_8equal_toIS6_EENS4_INS_4pairIKS6_iEEEEED1B7v160006Ev, symObjAddr: 0xA60, symBinAddr: 0x100008470, symSize: 0x20 }
  - { offsetInCU: 0x10DE5, offset: 0x23AF7, size: 0x8, addend: 0x0, symName: __ZN6PlayerC1Ef, symObjAddr: 0xAA0, symBinAddr: 0x100008490, symSize: 0x30 }
  - { offsetInCU: 0x10E1E, offset: 0x23B30, size: 0x8, addend: 0x0, symName: __ZN6Player7getNameEv, symObjAddr: 0xAD0, symBinAddr: 0x1000084C0, symSize: 0x30 }
  - { offsetInCU: 0x10E45, offset: 0x23B57, size: 0x8, addend: 0x0, symName: __ZN6Player7getCashEv, symObjAddr: 0xB00, symBinAddr: 0x1000084F0, symSize: 0x20 }
  - { offsetInCU: 0x10E6C, offset: 0x23B7E, size: 0x8, addend: 0x0, symName: __ZN6Player8dealCardE4Card, symObjAddr: 0xB20, symBinAddr: 0x100008510, symSize: 0x30 }
  - { offsetInCU: 0x10EA2, offset: 0x23BB4, size: 0x8, addend: 0x0, symName: __ZNSt3__16vectorI4CardNS_9allocatorIS1_EEE9push_backB7v160006ERKS1_, symObjAddr: 0xB50, symBinAddr: 0x100008540, symSize: 0x60 }
  - { offsetInCU: 0x10ED7, offset: 0x23BE9, size: 0x8, addend: 0x0, symName: __ZN6Player15updateHandValueEv, symObjAddr: 0xBB0, symBinAddr: 0x1000085A0, symSize: 0x230 }
  - { offsetInCU: 0x10F6B, offset: 0x23C7D, size: 0x8, addend: 0x0, symName: __ZN6Player9dealCardsENSt3__16vectorI4CardNS0_9allocatorIS2_EEEE, symObjAddr: 0xDE0, symBinAddr: 0x1000087D0, symSize: 0x90 }
  - { offsetInCU: 0x10FA1, offset: 0x23CB3, size: 0x8, addend: 0x0, symName: __ZNSt3__16vectorI4CardNS_9allocatorIS1_EEE6insertINS_11__wrap_iterIPS1_EELi0EEES8_NS6_IPKS1_EET_SC_, symObjAddr: 0xE70, symBinAddr: 0x100008860, symSize: 0x330 }
  - { offsetInCU: 0x110B3, offset: 0x23DC5, size: 0x8, addend: 0x0, symName: __ZNSt3__16vectorI4CardNS_9allocatorIS1_EEE3endB7v160006Ev, symObjAddr: 0x11A0, symBinAddr: 0x100008B90, symSize: 0x30 }
  - { offsetInCU: 0x110E3, offset: 0x23DF5, size: 0x8, addend: 0x0, symName: __ZNSt3__111__wrap_iterIPK4CardEC1B7v160006IPS1_EERKNS0_IT_EEPNS_9enable_ifIXsr14is_convertibleIS7_S3_EE5valueEvE4typeE, symObjAddr: 0x11D0, symBinAddr: 0x100008BC0, symSize: 0x30 }
  - { offsetInCU: 0x1112D, offset: 0x23E3F, size: 0x8, addend: 0x0, symName: __ZNSt3__16vectorI4CardNS_9allocatorIS1_EEE5beginB7v160006Ev, symObjAddr: 0x1200, symBinAddr: 0x100008BF0, symSize: 0x30 }
  - { offsetInCU: 0x11153, offset: 0x23E65, size: 0x8, addend: 0x0, symName: __ZN6Player9clearHandEv, symObjAddr: 0x1230, symBinAddr: 0x100008C20, symSize: 0x30 }
  - { offsetInCU: 0x1117A, offset: 0x23E8C, size: 0x8, addend: 0x0, symName: __ZNSt3__16vectorI4CardNS_9allocatorIS1_EEE5clearB7v160006Ev, symObjAddr: 0x1260, symBinAddr: 0x100008C50, symSize: 0x50 }
  - { offsetInCU: 0x111AE, offset: 0x23EC0, size: 0x8, addend: 0x0, symName: __ZN6Player14showCardsShortEv, symObjAddr: 0x12B0, symBinAddr: 0x100008CA0, symSize: 0x200 }
  - { offsetInCU: 0x11233, offset: 0x23F45, size: 0x8, addend: 0x0, symName: __ZNKSt3__111__wrap_iterIP4CardEdeB7v160006Ev, symObjAddr: 0x1510, symBinAddr: 0x100008ED0, symSize: 0x20 }
  - { offsetInCU: 0x11258, offset: 0x23F6A, size: 0x8, addend: 0x0, symName: __ZN4CardC1ERKS_, symObjAddr: 0x1530, symBinAddr: 0x100008EF0, symSize: 0x30 }
  - { offsetInCU: 0x1128C, offset: 0x23F9E, size: 0x8, addend: 0x0, symName: __ZNSt3__111__wrap_iterIP4CardEppB7v160006Ev, symObjAddr: 0x1600, symBinAddr: 0x100008F20, symSize: 0x20 }
  - { offsetInCU: 0x112B1, offset: 0x23FC3, size: 0x8, addend: 0x0, symName: __ZNSt3__112basic_stringIcNS_11char_traitsIcEENS_9allocatorIcEEE8pop_backB7v160006Ev, symObjAddr: 0x1620, symBinAddr: 0x100008F40, symSize: 0x30 }
  - { offsetInCU: 0x112D7, offset: 0x23FE9, size: 0x8, addend: 0x0, symName: __ZNSt3__113unordered_mapINS_12basic_stringIcNS_11char_traitsIcEENS_9allocatorIcEEEEiNS_4hashIS6_EENS_8equal_toIS6_EENS4_INS_4pairIKS6_iEEEEEixEOS6_, symObjAddr: 0x16E0, symBinAddr: 0x100009000, symSize: 0x70 }
  - { offsetInCU: 0x1130C, offset: 0x2401E, size: 0x8, addend: 0x0, symName: __ZN6Player12getHandValueEv, symObjAddr: 0x1750, symBinAddr: 0x100009070, symSize: 0x10 }
  - { offsetInCU: 0x11333, offset: 0x24045, size: 0x8, addend: 0x0, symName: __ZNSt3__14pairIKNS_12basic_stringIcNS_11char_traitsIcEENS_9allocatorIcEEEEiEC2B7v160006IRA2_KciLPv0EEEOT_OT0_, symObjAddr: 0x1760, symBinAddr: 0x100009080, symSize: 0x40 }
  - { offsetInCU: 0x11390, offset: 0x240A2, size: 0x8, addend: 0x0, symName: __ZNSt3__14pairIKNS_12basic_stringIcNS_11char_traitsIcEENS_9allocatorIcEEEEiEC2B7v160006IRA3_KciLPv0EEEOT_OT0_, symObjAddr: 0x17A0, symBinAddr: 0x1000090C0, symSize: 0x40 }
  - { offsetInCU: 0x113ED, offset: 0x240FF, size: 0x8, addend: 0x0, symName: __ZNSt3__14pairIKNS_12basic_stringIcNS_11char_traitsIcEENS_9allocatorIcEEEEiED2Ev, symObjAddr: 0x17E0, symBinAddr: 0x100009100, symSize: 0x20 }
  - { offsetInCU: 0x11418, offset: 0x2412A, size: 0x8, addend: 0x0, symName: __ZNSt16initializer_listI4CardEC2B7v160006Ev, symObjAddr: 0x1800, symBinAddr: 0x100009120, symSize: 0x20 }
  - { offsetInCU: 0x11441, offset: 0x24153, size: 0x8, addend: 0x0, symName: __ZNSt3__111__wrap_iterIPK4CardEC2B7v160006IPS1_EERKNS0_IT_EEPNS_9enable_ifIXsr14is_convertibleIS7_S3_EE5valueEvE4typeE, symObjAddr: 0x1820, symBinAddr: 0x100009140, symSize: 0x40 }
  - { offsetInCU: 0x1148B, offset: 0x2419D, size: 0x8, addend: 0x0, symName: __ZNKSt3__111__wrap_iterIP4CardE4baseB7v160006Ev, symObjAddr: 0x1860, symBinAddr: 0x100009180, symSize: 0x20 }
  - { offsetInCU: 0x114B0, offset: 0x241C2, size: 0x8, addend: 0x0, symName: __ZN4CardC2ERKS_, symObjAddr: 0x18C0, symBinAddr: 0x1000091E0, symSize: 0x160 }
  - { offsetInCU: 0x114E4, offset: 0x241F6, size: 0x8, addend: 0x0, symName: __ZNSt3__16vectorINS_12basic_stringIcNS_11char_traitsIcEENS_9allocatorIcEEEENS4_IS6_EEEC1ERKS8_, symObjAddr: 0x1A20, symBinAddr: 0x100009340, symSize: 0x30 }
  - { offsetInCU: 0x1151E, offset: 0x24230, size: 0x8, addend: 0x0, symName: __ZNSt3__16vectorINS_12basic_stringIcNS_11char_traitsIcEENS_9allocatorIcEEEENS4_IS6_EEEC2ERKS8_, symObjAddr: 0x1A70, symBinAddr: 0x100009370, symSize: 0x110 }
  - { offsetInCU: 0x11587, offset: 0x24299, size: 0x8, addend: 0x0, symName: __ZNSt3__116allocator_traitsINS_9allocatorINS_12basic_stringIcNS_11char_traitsIcEENS1_IcEEEEEEE37select_on_container_copy_constructionB7v160006IS7_vvEES7_RKS7_, symObjAddr: 0x1B80, symBinAddr: 0x100009480, symSize: 0x10 }
  - { offsetInCU: 0x115B6, offset: 0x242C8, size: 0x8, addend: 0x0, symName: __ZNKSt3__16vectorINS_12basic_stringIcNS_11char_traitsIcEENS_9allocatorIcEEEENS4_IS6_EEE7__allocB7v160006Ev, symObjAddr: 0x1B90, symBinAddr: 0x100009490, symSize: 0x20 }
  - { offsetInCU: 0x115E5, offset: 0x242F7, size: 0x8, addend: 0x0, symName: __ZNSt3__117__compressed_pairIPNS_12basic_stringIcNS_11char_traitsIcEENS_9allocatorIcEEEENS4_IS6_EEEC1B7v160006IDnS8_EEOT_OT0_, symObjAddr: 0x1BB0, symBinAddr: 0x1000094B0, symSize: 0x30 }
  - { offsetInCU: 0x1163C, offset: 0x2434E, size: 0x8, addend: 0x0, symName: __ZNSt3__16vectorINS_12basic_stringIcNS_11char_traitsIcEENS_9allocatorIcEEEENS4_IS6_EEE11__vallocateB7v160006Em, symObjAddr: 0x1C90, symBinAddr: 0x100009530, symSize: 0xA0 }
  - { offsetInCU: 0x1167F, offset: 0x24391, size: 0x8, addend: 0x0, symName: __ZNSt3__16vectorINS_12basic_stringIcNS_11char_traitsIcEENS_9allocatorIcEEEENS4_IS6_EEE18__construct_at_endIPS6_Li0EEEvT_SB_m, symObjAddr: 0x1D30, symBinAddr: 0x1000095D0, symSize: 0x90 }
  - { offsetInCU: 0x116F0, offset: 0x24402, size: 0x8, addend: 0x0, symName: __ZNSt3__128__exception_guard_exceptionsINS_6vectorINS_12basic_stringIcNS_11char_traitsIcEENS_9allocatorIcEEEENS5_IS7_EEE16__destroy_vectorEE10__completeB7v160006Ev, symObjAddr: 0x1DC0, symBinAddr: 0x100009660, symSize: 0x20 }
  - { offsetInCU: 0x11715, offset: 0x24427, size: 0x8, addend: 0x0, symName: __ZNSt3__128__exception_guard_exceptionsINS_6vectorINS_12basic_stringIcNS_11char_traitsIcEENS_9allocatorIcEEEENS5_IS7_EEE16__destroy_vectorEED1B7v160006Ev, symObjAddr: 0x1DE0, symBinAddr: 0x100009680, symSize: 0x20 }
  - { offsetInCU: 0x1173E, offset: 0x24450, size: 0x8, addend: 0x0, symName: __ZNKSt3__117__compressed_pairIPNS_12basic_stringIcNS_11char_traitsIcEENS_9allocatorIcEEEENS4_IS6_EEE6secondB7v160006Ev, symObjAddr: 0x1E00, symBinAddr: 0x1000096A0, symSize: 0x20 }
  - { offsetInCU: 0x11763, offset: 0x24475, size: 0x8, addend: 0x0, symName: __ZNKSt3__122__compressed_pair_elemINS_9allocatorINS_12basic_stringIcNS_11char_traitsIcEENS1_IcEEEEEELi1ELb1EE5__getB7v160006Ev, symObjAddr: 0x1E20, symBinAddr: 0x1000096C0, symSize: 0x10 }
  - { offsetInCU: 0x11788, offset: 0x2449A, size: 0x8, addend: 0x0, symName: __ZNSt3__117__compressed_pairIPNS_12basic_stringIcNS_11char_traitsIcEENS_9allocatorIcEEEENS4_IS6_EEEC2B7v160006IDnS8_EEOT_OT0_, symObjAddr: 0x1E30, symBinAddr: 0x1000096D0, symSize: 0x40 }
  - { offsetInCU: 0x117DF, offset: 0x244F1, size: 0x8, addend: 0x0, symName: __ZNSt3__122__compressed_pair_elemIPNS_12basic_stringIcNS_11char_traitsIcEENS_9allocatorIcEEEELi0ELb0EEC2B7v160006IDnvEEOT_, symObjAddr: 0x1E70, symBinAddr: 0x100009710, symSize: 0x20 }
  - { offsetInCU: 0x11820, offset: 0x24532, size: 0x8, addend: 0x0, symName: __ZNSt3__122__compressed_pair_elemINS_9allocatorINS_12basic_stringIcNS_11char_traitsIcEENS1_IcEEEEEELi1ELb1EEC2B7v160006IS7_vEEOT_, symObjAddr: 0x1E90, symBinAddr: 0x100009730, symSize: 0x10 }
  - { offsetInCU: 0x11861, offset: 0x24573, size: 0x8, addend: 0x0, symName: __ZNSt3__128__exception_guard_exceptionsINS_6vectorINS_12basic_stringIcNS_11char_traitsIcEENS_9allocatorIcEEEENS5_IS7_EEE16__destroy_vectorEEC1B7v160006ESA_, symObjAddr: 0x1EA0, symBinAddr: 0x100009740, symSize: 0x30 }
  - { offsetInCU: 0x11898, offset: 0x245AA, size: 0x8, addend: 0x0, symName: __ZNSt3__128__exception_guard_exceptionsINS_6vectorINS_12basic_stringIcNS_11char_traitsIcEENS_9allocatorIcEEEENS5_IS7_EEE16__destroy_vectorEEC2B7v160006ESA_, symObjAddr: 0x1ED0, symBinAddr: 0x100009770, symSize: 0x20 }
  - { offsetInCU: 0x118CF, offset: 0x245E1, size: 0x8, addend: 0x0, symName: __ZNKSt3__16vectorINS_12basic_stringIcNS_11char_traitsIcEENS_9allocatorIcEEEENS4_IS6_EEE8max_sizeEv, symObjAddr: 0x1F10, symBinAddr: 0x100009790, symSize: 0x60 }
  - { offsetInCU: 0x118F5, offset: 0x24607, size: 0x8, addend: 0x0, symName: __ZNKSt3__16vectorINS_12basic_stringIcNS_11char_traitsIcEENS_9allocatorIcEEEENS4_IS6_EEE20__throw_length_errorB7v160006Ev, symObjAddr: 0x1F70, symBinAddr: 0x1000097F0, symSize: 0x20 }
  - { offsetInCU: 0x1191A, offset: 0x2462C, size: 0x8, addend: 0x0, symName: __ZNSt3__16vectorINS_12basic_stringIcNS_11char_traitsIcEENS_9allocatorIcEEEENS4_IS6_EEE9__end_capB7v160006Ev, symObjAddr: 0x1FF0, symBinAddr: 0x100009850, symSize: 0x20 }
  - { offsetInCU: 0x1193F, offset: 0x24651, size: 0x8, addend: 0x0, symName: __ZNKSt3__16vectorINS_12basic_stringIcNS_11char_traitsIcEENS_9allocatorIcEEEENS4_IS6_EEE14__annotate_newB7v160006Em, symObjAddr: 0x2010, symBinAddr: 0x100009870, symSize: 0xA0 }
  - { offsetInCU: 0x11973, offset: 0x24685, size: 0x8, addend: 0x0, symName: __ZNSt3__116allocator_traitsINS_9allocatorINS_12basic_stringIcNS_11char_traitsIcEENS1_IcEEEEEEE8max_sizeB7v160006IS7_vEEmRKS7_, symObjAddr: 0x20E0, symBinAddr: 0x100009910, symSize: 0x20 }
  - { offsetInCU: 0x119A1, offset: 0x246B3, size: 0x8, addend: 0x0, symName: __ZNKSt3__19allocatorINS_12basic_stringIcNS_11char_traitsIcEENS0_IcEEEEE8max_sizeB7v160006Ev, symObjAddr: 0x21A0, symBinAddr: 0x100009930, symSize: 0x20 }
  - { offsetInCU: 0x119C6, offset: 0x246D8, size: 0x8, addend: 0x0, symName: __ZNSt3__19allocatorINS_12basic_stringIcNS_11char_traitsIcEENS0_IcEEEEE8allocateB7v160006Em, symObjAddr: 0x22B0, symBinAddr: 0x100009950, symSize: 0x50 }
  - { offsetInCU: 0x119F9, offset: 0x2470B, size: 0x8, addend: 0x0, symName: __ZNSt3__117__compressed_pairIPNS_12basic_stringIcNS_11char_traitsIcEENS_9allocatorIcEEEENS4_IS6_EEE5firstB7v160006Ev, symObjAddr: 0x2440, symBinAddr: 0x1000099A0, symSize: 0x20 }
  - { offsetInCU: 0x11A1E, offset: 0x24730, size: 0x8, addend: 0x0, symName: __ZNSt3__122__compressed_pair_elemIPNS_12basic_stringIcNS_11char_traitsIcEENS_9allocatorIcEEEELi0ELb0EE5__getB7v160006Ev, symObjAddr: 0x2460, symBinAddr: 0x1000099C0, symSize: 0x10 }
  - { offsetInCU: 0x11A5C, offset: 0x2476E, size: 0x8, addend: 0x0, symName: __ZNSt3__16vectorINS_12basic_stringIcNS_11char_traitsIcEENS_9allocatorIcEEEENS4_IS6_EEE21_ConstructTransactionC1B7v160006ERS8_m, symObjAddr: 0x2550, symBinAddr: 0x1000099D0, symSize: 0x30 }
  - { offsetInCU: 0x11AA3, offset: 0x247B5, size: 0x8, addend: 0x0, symName: __ZNSt3__16vectorINS_12basic_stringIcNS_11char_traitsIcEENS_9allocatorIcEEEENS4_IS6_EEE21_ConstructTransactionD1B7v160006Ev, symObjAddr: 0x2680, symBinAddr: 0x100009B00, symSize: 0x20 }
  - { offsetInCU: 0x11ACC, offset: 0x247DE, size: 0x8, addend: 0x0, symName: __ZNSt3__16vectorINS_12basic_stringIcNS_11char_traitsIcEENS_9allocatorIcEEEENS4_IS6_EEE21_ConstructTransactionC2B7v160006ERS8_m, symObjAddr: 0x26A0, symBinAddr: 0x100009B20, symSize: 0x40 }
  - { offsetInCU: 0x11B13, offset: 0x24825, size: 0x8, addend: 0x0, symName: __ZNSt3__129_AllocatorDestroyRangeReverseINS_9allocatorINS_12basic_stringIcNS_11char_traitsIcEENS1_IcEEEEEEPS6_EC1B7v160006ERS7_RS8_SB_, symObjAddr: 0x2740, symBinAddr: 0x100009BC0, symSize: 0x40 }
  - { offsetInCU: 0x11B69, offset: 0x2487B, size: 0x8, addend: 0x0, symName: __ZNSt3__116allocator_traitsINS_9allocatorINS_12basic_stringIcNS_11char_traitsIcEENS1_IcEEEEEEE9constructB7v160006IS6_JRS6_EvEEvRS7_PT_DpOT0_, symObjAddr: 0x2780, symBinAddr: 0x100009C00, symSize: 0x30 }
  - { offsetInCU: 0x11BC0, offset: 0x248D2, size: 0x8, addend: 0x0, symName: __ZNSt3__128__exception_guard_exceptionsINS_29_AllocatorDestroyRangeReverseINS_9allocatorINS_12basic_stringIcNS_11char_traitsIcEENS2_IcEEEEEEPS7_EEE10__completeB7v160006Ev, symObjAddr: 0x27B0, symBinAddr: 0x100009C30, symSize: 0x20 }
  - { offsetInCU: 0x11BE5, offset: 0x248F7, size: 0x8, addend: 0x0, symName: __ZNSt3__128__exception_guard_exceptionsINS_29_AllocatorDestroyRangeReverseINS_9allocatorINS_12basic_stringIcNS_11char_traitsIcEENS2_IcEEEEEEPS7_EEED1B7v160006Ev, symObjAddr: 0x27D0, symBinAddr: 0x100009C50, symSize: 0x20 }
  - { offsetInCU: 0x11C0E, offset: 0x24920, size: 0x8, addend: 0x0, symName: __ZNSt3__128__exception_guard_exceptionsINS_29_AllocatorDestroyRangeReverseINS_9allocatorINS_12basic_stringIcNS_11char_traitsIcEENS2_IcEEEEEEPS7_EEEC1B7v160006ESA_, symObjAddr: 0x27F0, symBinAddr: 0x100009C70, symSize: 0x40 }
  - { offsetInCU: 0x11C45, offset: 0x24957, size: 0x8, addend: 0x0, symName: __ZNSt3__128__exception_guard_exceptionsINS_29_AllocatorDestroyRangeReverseINS_9allocatorINS_12basic_stringIcNS_11char_traitsIcEENS2_IcEEEEEEPS7_EEEC2B7v160006ESA_, symObjAddr: 0x2830, symBinAddr: 0x100009CB0, symSize: 0x30 }
  - { offsetInCU: 0x11C7C, offset: 0x2498E, size: 0x8, addend: 0x0, symName: __ZNSt3__129_AllocatorDestroyRangeReverseINS_9allocatorINS_12basic_stringIcNS_11char_traitsIcEENS1_IcEEEEEEPS6_EC2B7v160006ERS7_RS8_SB_, symObjAddr: 0x2860, symBinAddr: 0x100009CE0, symSize: 0x40 }
  - { offsetInCU: 0x11CD2, offset: 0x249E4, size: 0x8, addend: 0x0, symName: __ZNSt3__19allocatorINS_12basic_stringIcNS_11char_traitsIcEENS0_IcEEEEE9constructB7v160006IS5_JRS5_EEEvPT_DpOT0_, symObjAddr: 0x28A0, symBinAddr: 0x100009D20, symSize: 0x30 }
  - { offsetInCU: 0x11D27, offset: 0x24A39, size: 0x8, addend: 0x0, symName: __ZNSt3__128__exception_guard_exceptionsINS_29_AllocatorDestroyRangeReverseINS_9allocatorINS_12basic_stringIcNS_11char_traitsIcEENS2_IcEEEEEEPS7_EEED2B7v160006Ev, symObjAddr: 0x28D0, symBinAddr: 0x100009D50, symSize: 0x40 }
  - { offsetInCU: 0x11D50, offset: 0x24A62, size: 0x8, addend: 0x0, symName: __ZNKSt3__129_AllocatorDestroyRangeReverseINS_9allocatorINS_12basic_stringIcNS_11char_traitsIcEENS1_IcEEEEEEPS6_EclB7v160006Ev, symObjAddr: 0x2910, symBinAddr: 0x100009D90, symSize: 0x60 }
  - { offsetInCU: 0x11D75, offset: 0x24A87, size: 0x8, addend: 0x0, symName: __ZNSt3__116reverse_iteratorIPNS_12basic_stringIcNS_11char_traitsIcEENS_9allocatorIcEEEEEC1B7v160006ES7_, symObjAddr: 0x29E0, symBinAddr: 0x100009E60, symSize: 0x30 }
  - { offsetInCU: 0x11DAC, offset: 0x24ABE, size: 0x8, addend: 0x0, symName: __ZNSt3__116reverse_iteratorIPNS_12basic_stringIcNS_11char_traitsIcEENS_9allocatorIcEEEEEppB7v160006Ev, symObjAddr: 0x2AA0, symBinAddr: 0x100009EF0, symSize: 0x20 }
  - { offsetInCU: 0x11DD1, offset: 0x24AE3, size: 0x8, addend: 0x0, symName: __ZNKSt3__116reverse_iteratorIPNS_12basic_stringIcNS_11char_traitsIcEENS_9allocatorIcEEEEE4baseB7v160006Ev, symObjAddr: 0x2AC0, symBinAddr: 0x100009F10, symSize: 0x20 }
  - { offsetInCU: 0x11DFB, offset: 0x24B0D, size: 0x8, addend: 0x0, symName: __ZNSt3__119__to_address_helperINS_16reverse_iteratorIPNS_12basic_stringIcNS_11char_traitsIcEENS_9allocatorIcEEEEEEvE6__callB7v160006ERKS9_, symObjAddr: 0x2B00, symBinAddr: 0x100009F30, symSize: 0x40 }
  - { offsetInCU: 0x11E1E, offset: 0x24B30, size: 0x8, addend: 0x0, symName: __ZNKSt3__116reverse_iteratorIPNS_12basic_stringIcNS_11char_traitsIcEENS_9allocatorIcEEEEEptB7v160006Ev, symObjAddr: 0x2B40, symBinAddr: 0x100009F70, symSize: 0x20 }
  - { offsetInCU: 0x11E43, offset: 0x24B55, size: 0x8, addend: 0x0, symName: __ZNKSt3__116reverse_iteratorIPNS_12basic_stringIcNS_11char_traitsIcEENS_9allocatorIcEEEEEdeB7v160006Ev, symObjAddr: 0x2B60, symBinAddr: 0x100009F90, symSize: 0x30 }
  - { offsetInCU: 0x11E76, offset: 0x24B88, size: 0x8, addend: 0x0, symName: __ZNSt3__116reverse_iteratorIPNS_12basic_stringIcNS_11char_traitsIcEENS_9allocatorIcEEEEEC2B7v160006ES7_, symObjAddr: 0x2B90, symBinAddr: 0x100009FC0, symSize: 0x30 }
  - { offsetInCU: 0x11EAD, offset: 0x24BBF, size: 0x8, addend: 0x0, symName: __ZNSt3__16vectorINS_12basic_stringIcNS_11char_traitsIcEENS_9allocatorIcEEEENS4_IS6_EEE21_ConstructTransactionD2B7v160006Ev, symObjAddr: 0x2BC0, symBinAddr: 0x100009FF0, symSize: 0x20 }
  - { offsetInCU: 0x11ED6, offset: 0x24BE8, size: 0x8, addend: 0x0, symName: __ZNSt3__128__exception_guard_exceptionsINS_6vectorINS_12basic_stringIcNS_11char_traitsIcEENS_9allocatorIcEEEENS5_IS7_EEE16__destroy_vectorEED2B7v160006Ev, symObjAddr: 0x2BE0, symBinAddr: 0x10000A010, symSize: 0x40 }
  - { offsetInCU: 0x11EFF, offset: 0x24C11, size: 0x8, addend: 0x0, symName: __ZNSt3__112basic_stringIcNS_11char_traitsIcEENS_9allocatorIcEEEC2B7v160006Ev, symObjAddr: 0x3040, symBinAddr: 0x10000A050, symSize: 0x50 }
  - { offsetInCU: 0x11F2D, offset: 0x24C3F, size: 0x8, addend: 0x0, symName: __ZNSt3__16vectorI4CardNS_9allocatorIS1_EEEC2B7v160006Ev, symObjAddr: 0x31E0, symBinAddr: 0x10000A0A0, symSize: 0x60 }
  - { offsetInCU: 0x11F56, offset: 0x24C68, size: 0x8, addend: 0x0, symName: __ZNSt3__117__compressed_pairIP4CardNS_9allocatorIS1_EEEC1B7v160006IDnNS_18__default_init_tagEEEOT_OT0_, symObjAddr: 0x3240, symBinAddr: 0x10000A100, symSize: 0x30 }
  - { offsetInCU: 0x11FAD, offset: 0x24CBF, size: 0x8, addend: 0x0, symName: __ZNSt3__117__compressed_pairIP4CardNS_9allocatorIS1_EEEC2B7v160006IDnNS_18__default_init_tagEEEOT_OT0_, symObjAddr: 0x3280, symBinAddr: 0x10000A140, symSize: 0x40 }
  - { offsetInCU: 0x12004, offset: 0x24D16, size: 0x8, addend: 0x0, symName: __ZNSt3__122__compressed_pair_elemIP4CardLi0ELb0EEC2B7v160006IDnvEEOT_, symObjAddr: 0x32C0, symBinAddr: 0x10000A180, symSize: 0x20 }
  - { offsetInCU: 0x12045, offset: 0x24D57, size: 0x8, addend: 0x0, symName: __ZNSt3__122__compressed_pair_elemINS_9allocatorI4CardEELi1ELb1EEC2B7v160006ENS_18__default_init_tagE, symObjAddr: 0x32E0, symBinAddr: 0x10000A1A0, symSize: 0x20 }
  - { offsetInCU: 0x12078, offset: 0x24D8A, size: 0x8, addend: 0x0, symName: __ZNSt3__19allocatorI4CardEC2B7v160006Ev, symObjAddr: 0x3300, symBinAddr: 0x10000A1C0, symSize: 0x20 }
  - { offsetInCU: 0x120A1, offset: 0x24DB3, size: 0x8, addend: 0x0, symName: __ZNSt3__116__non_trivial_ifILb1ENS_9allocatorI4CardEEEC2B7v160006Ev, symObjAddr: 0x3320, symBinAddr: 0x10000A1E0, symSize: 0x10 }
  - { offsetInCU: 0x120CA, offset: 0x24DDC, size: 0x8, addend: 0x0, symName: __ZNSt3__113unordered_mapINS_12basic_stringIcNS_11char_traitsIcEENS_9allocatorIcEEEEiNS_4hashIS6_EENS_8equal_toIS6_EENS4_INS_4pairIKS6_iEEEEEC2B7v160006Ev, symObjAddr: 0x3330, symBinAddr: 0x10000A1F0, symSize: 0x40 }
  - { offsetInCU: 0x120F3, offset: 0x24E05, size: 0x8, addend: 0x0, symName: __ZNSt3__112__hash_tableINS_17__hash_value_typeINS_12basic_stringIcNS_11char_traitsIcEENS_9allocatorIcEEEEiEENS_22__unordered_map_hasherIS7_S8_NS_4hashIS7_EENS_8equal_toIS7_EELb1EEENS_21__unordered_map_equalIS7_S8_SD_SB_Lb1EEENS5_IS8_EEEC1Ev, symObjAddr: 0x3370, symBinAddr: 0x10000A230, symSize: 0x20 }
  - { offsetInCU: 0x1211E, offset: 0x24E30, size: 0x8, addend: 0x0, symName: __ZNSt3__112__hash_tableINS_17__hash_value_typeINS_12basic_stringIcNS_11char_traitsIcEENS_9allocatorIcEEEEiEENS_22__unordered_map_hasherIS7_S8_NS_4hashIS7_EENS_8equal_toIS7_EELb1EEENS_21__unordered_map_equalIS7_S8_SD_SB_Lb1EEENS5_IS8_EEEC2Ev, symObjAddr: 0x33A0, symBinAddr: 0x10000A260, symSize: 0x80 }
  - { offsetInCU: 0x12149, offset: 0x24E5B, size: 0x8, addend: 0x0, symName: __ZNSt3__110unique_ptrIA_PNS_16__hash_node_baseIPNS_11__hash_nodeINS_17__hash_value_typeINS_12basic_stringIcNS_11char_traitsIcEENS_9allocatorIcEEEEiEEPvEEEENS_25__bucket_list_deallocatorINS7_ISF_EEEEEC1B7v160006ILb1EvEEv, symObjAddr: 0x3420, symBinAddr: 0x10000A2E0, symSize: 0x20 }
  - { offsetInCU: 0x1217D, offset: 0x24E8F, size: 0x8, addend: 0x0, symName: __ZNSt3__117__compressed_pairINS_16__hash_node_baseIPNS_11__hash_nodeINS_17__hash_value_typeINS_12basic_stringIcNS_11char_traitsIcEENS_9allocatorIcEEEEiEEPvEEEENS7_ISC_EEEC1B7v160006ILb1EvEEv, symObjAddr: 0x3440, symBinAddr: 0x10000A300, symSize: 0x20 }
  - { offsetInCU: 0x121B1, offset: 0x24EC3, size: 0x8, addend: 0x0, symName: __ZNSt3__117__compressed_pairImNS_22__unordered_map_hasherINS_12basic_stringIcNS_11char_traitsIcEENS_9allocatorIcEEEENS_17__hash_value_typeIS7_iEENS_4hashIS7_EENS_8equal_toIS7_EELb1EEEEC1B7v160006IiNS_18__default_init_tagEEEOT_OT0_, symObjAddr: 0x3460, symBinAddr: 0x10000A320, symSize: 0x30 }
  - { offsetInCU: 0x1220D, offset: 0x24F1F, size: 0x8, addend: 0x0, symName: __ZNSt3__117__compressed_pairIfNS_21__unordered_map_equalINS_12basic_stringIcNS_11char_traitsIcEENS_9allocatorIcEEEENS_17__hash_value_typeIS7_iEENS_8equal_toIS7_EENS_4hashIS7_EELb1EEEEC1B7v160006IfNS_18__default_init_tagEEEOT_OT0_, symObjAddr: 0x3490, symBinAddr: 0x10000A350, symSize: 0x30 }
  - { offsetInCU: 0x12264, offset: 0x24F76, size: 0x8, addend: 0x0, symName: __ZNSt3__110unique_ptrIA_PNS_16__hash_node_baseIPNS_11__hash_nodeINS_17__hash_value_typeINS_12basic_stringIcNS_11char_traitsIcEENS_9allocatorIcEEEEiEEPvEEEENS_25__bucket_list_deallocatorINS7_ISF_EEEEEC2B7v160006ILb1EvEEv, symObjAddr: 0x34C0, symBinAddr: 0x10000A380, symSize: 0x30 }
  - { offsetInCU: 0x1229D, offset: 0x24FAF, size: 0x8, addend: 0x0, symName: __ZNSt3__117__compressed_pairIPPNS_16__hash_node_baseIPNS_11__hash_nodeINS_17__hash_value_typeINS_12basic_stringIcNS_11char_traitsIcEENS_9allocatorIcEEEEiEEPvEEEENS_25__bucket_list_deallocatorINS7_ISF_EEEEEC1B7v160006INS_16__value_init_tagESM_EEOT_OT0_, symObjAddr: 0x34F0, symBinAddr: 0x10000A3B0, symSize: 0x30 }
  - { offsetInCU: 0x122F4, offset: 0x25006, size: 0x8, addend: 0x0, symName: __ZNSt3__117__compressed_pairIPPNS_16__hash_node_baseIPNS_11__hash_nodeINS_17__hash_value_typeINS_12basic_stringIcNS_11char_traitsIcEENS_9allocatorIcEEEEiEEPvEEEENS_25__bucket_list_deallocatorINS7_ISF_EEEEEC2B7v160006INS_16__value_init_tagESM_EEOT_OT0_, symObjAddr: 0x3520, symBinAddr: 0x10000A3E0, symSize: 0x40 }
  - { offsetInCU: 0x1234B, offset: 0x2505D, size: 0x8, addend: 0x0, symName: __ZNSt3__122__compressed_pair_elemIPPNS_16__hash_node_baseIPNS_11__hash_nodeINS_17__hash_value_typeINS_12basic_stringIcNS_11char_traitsIcEENS_9allocatorIcEEEEiEEPvEEEELi0ELb0EEC2B7v160006ENS_16__value_init_tagE, symObjAddr: 0x3560, symBinAddr: 0x10000A420, symSize: 0x20 }
  - { offsetInCU: 0x1237E, offset: 0x25090, size: 0x8, addend: 0x0, symName: __ZNSt3__122__compressed_pair_elemINS_25__bucket_list_deallocatorINS_9allocatorIPNS_16__hash_node_baseIPNS_11__hash_nodeINS_17__hash_value_typeINS_12basic_stringIcNS_11char_traitsIcEENS2_IcEEEEiEEPvEEEEEEEELi1ELb0EEC2B7v160006ENS_16__value_init_tagE, symObjAddr: 0x3580, symBinAddr: 0x10000A440, symSize: 0x20 }
  - { offsetInCU: 0x123B1, offset: 0x250C3, size: 0x8, addend: 0x0, symName: __ZNSt3__125__bucket_list_deallocatorINS_9allocatorIPNS_16__hash_node_baseIPNS_11__hash_nodeINS_17__hash_value_typeINS_12basic_stringIcNS_11char_traitsIcEENS1_IcEEEEiEEPvEEEEEEEC1B7v160006Ev, symObjAddr: 0x35A0, symBinAddr: 0x10000A460, symSize: 0x20 }
  - { offsetInCU: 0x123DA, offset: 0x250EC, size: 0x8, addend: 0x0, symName: __ZNSt3__125__bucket_list_deallocatorINS_9allocatorIPNS_16__hash_node_baseIPNS_11__hash_nodeINS_17__hash_value_typeINS_12basic_stringIcNS_11char_traitsIcEENS1_IcEEEEiEEPvEEEEEEEC2B7v160006Ev, symObjAddr: 0x35C0, symBinAddr: 0x10000A480, symSize: 0x40 }
  - { offsetInCU: 0x12403, offset: 0x25115, size: 0x8, addend: 0x0, symName: __ZNSt3__117__compressed_pairImNS_9allocatorIPNS_16__hash_node_baseIPNS_11__hash_nodeINS_17__hash_value_typeINS_12basic_stringIcNS_11char_traitsIcEENS1_IcEEEEiEEPvEEEEEEEC1B7v160006IiNS_18__default_init_tagEEEOT_OT0_, symObjAddr: 0x3600, symBinAddr: 0x10000A4C0, symSize: 0x30 }
  - { offsetInCU: 0x1245A, offset: 0x2516C, size: 0x8, addend: 0x0, symName: __ZNSt3__117__compressed_pairImNS_9allocatorIPNS_16__hash_node_baseIPNS_11__hash_nodeINS_17__hash_value_typeINS_12basic_stringIcNS_11char_traitsIcEENS1_IcEEEEiEEPvEEEEEEEC2B7v160006IiNS_18__default_init_tagEEEOT_OT0_, symObjAddr: 0x3630, symBinAddr: 0x10000A4F0, symSize: 0x40 }
  - { offsetInCU: 0x124B1, offset: 0x251C3, size: 0x8, addend: 0x0, symName: __ZNSt3__122__compressed_pair_elemImLi0ELb0EEC2B7v160006IivEEOT_, symObjAddr: 0x3670, symBinAddr: 0x10000A530, symSize: 0x20 }
  - { offsetInCU: 0x124F2, offset: 0x25204, size: 0x8, addend: 0x0, symName: __ZNSt3__122__compressed_pair_elemINS_9allocatorIPNS_16__hash_node_baseIPNS_11__hash_nodeINS_17__hash_value_typeINS_12basic_stringIcNS_11char_traitsIcEENS1_IcEEEEiEEPvEEEEEELi1ELb1EEC2B7v160006ENS_18__default_init_tagE, symObjAddr: 0x3690, symBinAddr: 0x10000A550, symSize: 0x20 }
  - { offsetInCU: 0x12525, offset: 0x25237, size: 0x8, addend: 0x0, symName: __ZNSt3__19allocatorIPNS_16__hash_node_baseIPNS_11__hash_nodeINS_17__hash_value_typeINS_12basic_stringIcNS_11char_traitsIcEENS0_IcEEEEiEEPvEEEEEC2B7v160006Ev, symObjAddr: 0x36B0, symBinAddr: 0x10000A570, symSize: 0x20 }
  - { offsetInCU: 0x1254E, offset: 0x25260, size: 0x8, addend: 0x0, symName: __ZNSt3__116__non_trivial_ifILb1ENS_9allocatorIPNS_16__hash_node_baseIPNS_11__hash_nodeINS_17__hash_value_typeINS_12basic_stringIcNS_11char_traitsIcEENS1_IcEEEEiEEPvEEEEEEEC2B7v160006Ev, symObjAddr: 0x36D0, symBinAddr: 0x10000A590, symSize: 0x10 }
  - { offsetInCU: 0x12577, offset: 0x25289, size: 0x8, addend: 0x0, symName: __ZNSt3__117__compressed_pairINS_16__hash_node_baseIPNS_11__hash_nodeINS_17__hash_value_typeINS_12basic_stringIcNS_11char_traitsIcEENS_9allocatorIcEEEEiEEPvEEEENS7_ISC_EEEC2B7v160006ILb1EvEEv, symObjAddr: 0x36E0, symBinAddr: 0x10000A5A0, symSize: 0x30 }
  - { offsetInCU: 0x125AB, offset: 0x252BD, size: 0x8, addend: 0x0, symName: __ZNSt3__122__compressed_pair_elemINS_16__hash_node_baseIPNS_11__hash_nodeINS_17__hash_value_typeINS_12basic_stringIcNS_11char_traitsIcEENS_9allocatorIcEEEEiEEPvEEEELi0ELb0EEC2B7v160006ENS_16__value_init_tagE, symObjAddr: 0x3710, symBinAddr: 0x10000A5D0, symSize: 0x20 }
  - { offsetInCU: 0x125DE, offset: 0x252F0, size: 0x8, addend: 0x0, symName: __ZNSt3__122__compressed_pair_elemINS_9allocatorINS_11__hash_nodeINS_17__hash_value_typeINS_12basic_stringIcNS_11char_traitsIcEENS1_IcEEEEiEEPvEEEELi1ELb1EEC2B7v160006ENS_16__value_init_tagE, symObjAddr: 0x3730, symBinAddr: 0x10000A5F0, symSize: 0x20 }
  - { offsetInCU: 0x12611, offset: 0x25323, size: 0x8, addend: 0x0, symName: __ZNSt3__116__hash_node_baseIPNS_11__hash_nodeINS_17__hash_value_typeINS_12basic_stringIcNS_11char_traitsIcEENS_9allocatorIcEEEEiEEPvEEEC1B7v160006Ev, symObjAddr: 0x3750, symBinAddr: 0x10000A610, symSize: 0x20 }
  - { offsetInCU: 0x1263A, offset: 0x2534C, size: 0x8, addend: 0x0, symName: __ZNSt3__116__hash_node_baseIPNS_11__hash_nodeINS_17__hash_value_typeINS_12basic_stringIcNS_11char_traitsIcEENS_9allocatorIcEEEEiEEPvEEEC2B7v160006Ev, symObjAddr: 0x3770, symBinAddr: 0x10000A630, symSize: 0x20 }
  - { offsetInCU: 0x12663, offset: 0x25375, size: 0x8, addend: 0x0, symName: __ZNSt3__19allocatorINS_11__hash_nodeINS_17__hash_value_typeINS_12basic_stringIcNS_11char_traitsIcEENS0_IcEEEEiEEPvEEEC2B7v160006Ev, symObjAddr: 0x3790, symBinAddr: 0x10000A650, symSize: 0x20 }
  - { offsetInCU: 0x1268C, offset: 0x2539E, size: 0x8, addend: 0x0, symName: __ZNSt3__116__non_trivial_ifILb1ENS_9allocatorINS_11__hash_nodeINS_17__hash_value_typeINS_12basic_stringIcNS_11char_traitsIcEENS1_IcEEEEiEEPvEEEEEC2B7v160006Ev, symObjAddr: 0x37B0, symBinAddr: 0x10000A670, symSize: 0x10 }
  - { offsetInCU: 0x126B5, offset: 0x253C7, size: 0x8, addend: 0x0, symName: __ZNSt3__117__compressed_pairImNS_22__unordered_map_hasherINS_12basic_stringIcNS_11char_traitsIcEENS_9allocatorIcEEEENS_17__hash_value_typeIS7_iEENS_4hashIS7_EENS_8equal_toIS7_EELb1EEEEC2B7v160006IiNS_18__default_init_tagEEEOT_OT0_, symObjAddr: 0x37C0, symBinAddr: 0x10000A680, symSize: 0x40 }
  - { offsetInCU: 0x1270C, offset: 0x2541E, size: 0x8, addend: 0x0, symName: __ZNSt3__122__compressed_pair_elemINS_22__unordered_map_hasherINS_12basic_stringIcNS_11char_traitsIcEENS_9allocatorIcEEEENS_17__hash_value_typeIS7_iEENS_4hashIS7_EENS_8equal_toIS7_EELb1EEELi1ELb1EEC2B7v160006ENS_18__default_init_tagE, symObjAddr: 0x3800, symBinAddr: 0x10000A6C0, symSize: 0x20 }
  - { offsetInCU: 0x1273F, offset: 0x25451, size: 0x8, addend: 0x0, symName: __ZNSt3__122__unordered_map_hasherINS_12basic_stringIcNS_11char_traitsIcEENS_9allocatorIcEEEENS_17__hash_value_typeIS6_iEENS_4hashIS6_EENS_8equal_toIS6_EELb1EEC2B7v160006Ev, symObjAddr: 0x3820, symBinAddr: 0x10000A6E0, symSize: 0x10 }
  - { offsetInCU: 0x12768, offset: 0x2547A, size: 0x8, addend: 0x0, symName: __ZNSt3__117__compressed_pairIfNS_21__unordered_map_equalINS_12basic_stringIcNS_11char_traitsIcEENS_9allocatorIcEEEENS_17__hash_value_typeIS7_iEENS_8equal_toIS7_EENS_4hashIS7_EELb1EEEEC2B7v160006IfNS_18__default_init_tagEEEOT_OT0_, symObjAddr: 0x3830, symBinAddr: 0x10000A6F0, symSize: 0x40 }
  - { offsetInCU: 0x127BF, offset: 0x254D1, size: 0x8, addend: 0x0, symName: __ZNSt3__122__compressed_pair_elemIfLi0ELb0EEC2B7v160006IfvEEOT_, symObjAddr: 0x3870, symBinAddr: 0x10000A730, symSize: 0x20 }
  - { offsetInCU: 0x12800, offset: 0x25512, size: 0x8, addend: 0x0, symName: __ZNSt3__122__compressed_pair_elemINS_21__unordered_map_equalINS_12basic_stringIcNS_11char_traitsIcEENS_9allocatorIcEEEENS_17__hash_value_typeIS7_iEENS_8equal_toIS7_EENS_4hashIS7_EELb1EEELi1ELb1EEC2B7v160006ENS_18__default_init_tagE, symObjAddr: 0x3890, symBinAddr: 0x10000A750, symSize: 0x20 }
  - { offsetInCU: 0x12833, offset: 0x25545, size: 0x8, addend: 0x0, symName: __ZNSt3__121__unordered_map_equalINS_12basic_stringIcNS_11char_traitsIcEENS_9allocatorIcEEEENS_17__hash_value_typeIS6_iEENS_8equal_toIS6_EENS_4hashIS6_EELb1EEC2B7v160006Ev, symObjAddr: 0x38B0, symBinAddr: 0x10000A770, symSize: 0x10 }
  - { offsetInCU: 0x1285C, offset: 0x2556E, size: 0x8, addend: 0x0, symName: __ZNSt3__113unordered_mapINS_12basic_stringIcNS_11char_traitsIcEENS_9allocatorIcEEEEiNS_4hashIS6_EENS_8equal_toIS6_EENS4_INS_4pairIKS6_iEEEEED2B7v160006Ev, symObjAddr: 0x3D70, symBinAddr: 0x10000A780, symSize: 0x20 }
  - { offsetInCU: 0x12885, offset: 0x25597, size: 0x8, addend: 0x0, symName: __ZNSt3__112__hash_tableINS_17__hash_value_typeINS_12basic_stringIcNS_11char_traitsIcEENS_9allocatorIcEEEEiEENS_22__unordered_map_hasherIS7_S8_NS_4hashIS7_EENS_8equal_toIS7_EELb1EEENS_21__unordered_map_equalIS7_S8_SD_SB_Lb1EEENS5_IS8_EEED1Ev, symObjAddr: 0x3D90, symBinAddr: 0x10000A7A0, symSize: 0x20 }
  - { offsetInCU: 0x128B0, offset: 0x255C2, size: 0x8, addend: 0x0, symName: __ZNSt3__112__hash_tableINS_17__hash_value_typeINS_12basic_stringIcNS_11char_traitsIcEENS_9allocatorIcEEEEiEENS_22__unordered_map_hasherIS7_S8_NS_4hashIS7_EENS_8equal_toIS7_EELb1EEENS_21__unordered_map_equalIS7_S8_SD_SB_Lb1EEENS5_IS8_EEED2Ev, symObjAddr: 0x3DB0, symBinAddr: 0x10000A7C0, symSize: 0x50 }
  - { offsetInCU: 0x128DB, offset: 0x255ED, size: 0x8, addend: 0x0, symName: __ZNSt3__112__hash_tableINS_17__hash_value_typeINS_12basic_stringIcNS_11char_traitsIcEENS_9allocatorIcEEEEiEENS_22__unordered_map_hasherIS7_S8_NS_4hashIS7_EENS_8equal_toIS7_EELb1EEENS_21__unordered_map_equalIS7_S8_SD_SB_Lb1EEENS5_IS8_EEE17__deallocate_nodeEPNS_16__hash_node_baseIPNS_11__hash_nodeIS8_PvEEEE, symObjAddr: 0x3E00, symBinAddr: 0x10000A810, symSize: 0xA0 }
  - { offsetInCU: 0x12943, offset: 0x25655, size: 0x8, addend: 0x0, symName: __ZNSt3__117__compressed_pairINS_16__hash_node_baseIPNS_11__hash_nodeINS_17__hash_value_typeINS_12basic_stringIcNS_11char_traitsIcEENS_9allocatorIcEEEEiEEPvEEEENS7_ISC_EEE5firstB7v160006Ev, symObjAddr: 0x3EA0, symBinAddr: 0x10000A8B0, symSize: 0x20 }
  - { offsetInCU: 0x12968, offset: 0x2567A, size: 0x8, addend: 0x0, symName: __ZNSt3__110unique_ptrIA_PNS_16__hash_node_baseIPNS_11__hash_nodeINS_17__hash_value_typeINS_12basic_stringIcNS_11char_traitsIcEENS_9allocatorIcEEEEiEEPvEEEENS_25__bucket_list_deallocatorINS7_ISF_EEEEED1B7v160006Ev, symObjAddr: 0x3ED0, symBinAddr: 0x10000A8E0, symSize: 0x20 }
  - { offsetInCU: 0x12991, offset: 0x256A3, size: 0x8, addend: 0x0, symName: __ZNSt3__112__hash_tableINS_17__hash_value_typeINS_12basic_stringIcNS_11char_traitsIcEENS_9allocatorIcEEEEiEENS_22__unordered_map_hasherIS7_S8_NS_4hashIS7_EENS_8equal_toIS7_EELb1EEENS_21__unordered_map_equalIS7_S8_SD_SB_Lb1EEENS5_IS8_EEE12__node_allocB7v160006Ev, symObjAddr: 0x3EF0, symBinAddr: 0x10000A900, symSize: 0x20 }
  - { offsetInCU: 0x129B6, offset: 0x256C8, size: 0x8, addend: 0x0, symName: __ZNSt3__116__hash_node_baseIPNS_11__hash_nodeINS_17__hash_value_typeINS_12basic_stringIcNS_11char_traitsIcEENS_9allocatorIcEEEEiEEPvEEE8__upcastB7v160006Ev, symObjAddr: 0x3F10, symBinAddr: 0x10000A920, symSize: 0x20 }
  - { offsetInCU: 0x129DB, offset: 0x256ED, size: 0x8, addend: 0x0, symName: __ZNSt3__116allocator_traitsINS_9allocatorINS_11__hash_nodeINS_17__hash_value_typeINS_12basic_stringIcNS_11char_traitsIcEENS1_IcEEEEiEEPvEEEEE7destroyB7v160006INS_4pairIKS8_iEEvvEEvRSC_PT_, symObjAddr: 0x3F30, symBinAddr: 0x10000A940, symSize: 0x20 }
  - { offsetInCU: 0x12A15, offset: 0x25727, size: 0x8, addend: 0x0, symName: __ZNSt3__122__hash_key_value_typesINS_17__hash_value_typeINS_12basic_stringIcNS_11char_traitsIcEENS_9allocatorIcEEEEiEEE9__get_ptrB7v160006ERS8_, symObjAddr: 0x3F50, symBinAddr: 0x10000A960, symSize: 0x20 }
  - { offsetInCU: 0x12A38, offset: 0x2574A, size: 0x8, addend: 0x0, symName: __ZNSt3__116allocator_traitsINS_9allocatorINS_11__hash_nodeINS_17__hash_value_typeINS_12basic_stringIcNS_11char_traitsIcEENS1_IcEEEEiEEPvEEEEE10deallocateB7v160006ERSC_PSB_m, symObjAddr: 0x3F70, symBinAddr: 0x10000A980, symSize: 0x30 }
  - { offsetInCU: 0x12A7A, offset: 0x2578C, size: 0x8, addend: 0x0, symName: __ZNSt3__117__compressed_pairINS_16__hash_node_baseIPNS_11__hash_nodeINS_17__hash_value_typeINS_12basic_stringIcNS_11char_traitsIcEENS_9allocatorIcEEEEiEEPvEEEENS7_ISC_EEE6secondB7v160006Ev, symObjAddr: 0x3FA0, symBinAddr: 0x10000A9B0, symSize: 0x20 }
  - { offsetInCU: 0x12A9F, offset: 0x257B1, size: 0x8, addend: 0x0, symName: __ZNSt3__122__compressed_pair_elemINS_9allocatorINS_11__hash_nodeINS_17__hash_value_typeINS_12basic_stringIcNS_11char_traitsIcEENS1_IcEEEEiEEPvEEEELi1ELb1EE5__getB7v160006Ev, symObjAddr: 0x3FC0, symBinAddr: 0x10000A9D0, symSize: 0x10 }
  - { offsetInCU: 0x12AC4, offset: 0x257D6, size: 0x8, addend: 0x0, symName: __ZNSt3__114pointer_traitsIPNS_16__hash_node_baseIPNS_11__hash_nodeINS_17__hash_value_typeINS_12basic_stringIcNS_11char_traitsIcEENS_9allocatorIcEEEEiEEPvEEEEE10pointer_toB7v160006ERSE_, symObjAddr: 0x3FD0, symBinAddr: 0x10000A9E0, symSize: 0x10 }
  - { offsetInCU: 0x12AE7, offset: 0x257F9, size: 0x8, addend: 0x0, symName: __ZNSt3__117__hash_value_typeINS_12basic_stringIcNS_11char_traitsIcEENS_9allocatorIcEEEEiE11__get_valueB7v160006Ev, symObjAddr: 0x3FE0, symBinAddr: 0x10000A9F0, symSize: 0x20 }
  - { offsetInCU: 0x12B0C, offset: 0x2581E, size: 0x8, addend: 0x0, symName: __ZNSt3__19allocatorINS_11__hash_nodeINS_17__hash_value_typeINS_12basic_stringIcNS_11char_traitsIcEENS0_IcEEEEiEEPvEEE10deallocateB7v160006EPSA_m, symObjAddr: 0x4030, symBinAddr: 0x10000AA40, symSize: 0x50 }
  - { offsetInCU: 0x12B4D, offset: 0x2585F, size: 0x8, addend: 0x0, symName: __ZNSt3__122__compressed_pair_elemINS_16__hash_node_baseIPNS_11__hash_nodeINS_17__hash_value_typeINS_12basic_stringIcNS_11char_traitsIcEENS_9allocatorIcEEEEiEEPvEEEELi0ELb0EE5__getB7v160006Ev, symObjAddr: 0x4080, symBinAddr: 0x10000AA90, symSize: 0x10 }
  - { offsetInCU: 0x12B72, offset: 0x25884, size: 0x8, addend: 0x0, symName: __ZNSt3__110unique_ptrIA_PNS_16__hash_node_baseIPNS_11__hash_nodeINS_17__hash_value_typeINS_12basic_stringIcNS_11char_traitsIcEENS_9allocatorIcEEEEiEEPvEEEENS_25__bucket_list_deallocatorINS7_ISF_EEEEED2B7v160006Ev, symObjAddr: 0x4090, symBinAddr: 0x10000AAA0, symSize: 0x20 }
  - { offsetInCU: 0x12B9B, offset: 0x258AD, size: 0x8, addend: 0x0, symName: __ZNSt3__110unique_ptrIA_PNS_16__hash_node_baseIPNS_11__hash_nodeINS_17__hash_value_typeINS_12basic_stringIcNS_11char_traitsIcEENS_9allocatorIcEEEEiEEPvEEEENS_25__bucket_list_deallocatorINS7_ISF_EEEEE5resetB7v160006EDn, symObjAddr: 0x40B0, symBinAddr: 0x10000AAC0, symSize: 0x60 }
  - { offsetInCU: 0x12BDA, offset: 0x258EC, size: 0x8, addend: 0x0, symName: __ZNSt3__117__compressed_pairIPPNS_16__hash_node_baseIPNS_11__hash_nodeINS_17__hash_value_typeINS_12basic_stringIcNS_11char_traitsIcEENS_9allocatorIcEEEEiEEPvEEEENS_25__bucket_list_deallocatorINS7_ISF_EEEEE5firstB7v160006Ev, symObjAddr: 0x4110, symBinAddr: 0x10000AB20, symSize: 0x20 }
  - { offsetInCU: 0x12BFF, offset: 0x25911, size: 0x8, addend: 0x0, symName: __ZNSt3__117__compressed_pairIPPNS_16__hash_node_baseIPNS_11__hash_nodeINS_17__hash_value_typeINS_12basic_stringIcNS_11char_traitsIcEENS_9allocatorIcEEEEiEEPvEEEENS_25__bucket_list_deallocatorINS7_ISF_EEEEE6secondB7v160006Ev, symObjAddr: 0x4130, symBinAddr: 0x10000AB40, symSize: 0x20 }
  - { offsetInCU: 0x12C24, offset: 0x25936, size: 0x8, addend: 0x0, symName: __ZNSt3__125__bucket_list_deallocatorINS_9allocatorIPNS_16__hash_node_baseIPNS_11__hash_nodeINS_17__hash_value_typeINS_12basic_stringIcNS_11char_traitsIcEENS1_IcEEEEiEEPvEEEEEEEclB7v160006EPSF_, symObjAddr: 0x4150, symBinAddr: 0x10000AB60, symSize: 0x50 }
  - { offsetInCU: 0x12C58, offset: 0x2596A, size: 0x8, addend: 0x0, symName: __ZNSt3__122__compressed_pair_elemIPPNS_16__hash_node_baseIPNS_11__hash_nodeINS_17__hash_value_typeINS_12basic_stringIcNS_11char_traitsIcEENS_9allocatorIcEEEEiEEPvEEEELi0ELb0EE5__getB7v160006Ev, symObjAddr: 0x41A0, symBinAddr: 0x10000ABB0, symSize: 0x10 }
  - { offsetInCU: 0x12C7D, offset: 0x2598F, size: 0x8, addend: 0x0, symName: __ZNSt3__122__compressed_pair_elemINS_25__bucket_list_deallocatorINS_9allocatorIPNS_16__hash_node_baseIPNS_11__hash_nodeINS_17__hash_value_typeINS_12basic_stringIcNS_11char_traitsIcEENS2_IcEEEEiEEPvEEEEEEEELi1ELb0EE5__getB7v160006Ev, symObjAddr: 0x41B0, symBinAddr: 0x10000ABC0, symSize: 0x10 }
  - { offsetInCU: 0x12CA2, offset: 0x259B4, size: 0x8, addend: 0x0, symName: __ZNSt3__116allocator_traitsINS_9allocatorIPNS_16__hash_node_baseIPNS_11__hash_nodeINS_17__hash_value_typeINS_12basic_stringIcNS_11char_traitsIcEENS1_IcEEEEiEEPvEEEEEEE10deallocateB7v160006ERSG_PSF_m, symObjAddr: 0x41C0, symBinAddr: 0x10000ABD0, symSize: 0x30 }
  - { offsetInCU: 0x12CE4, offset: 0x259F6, size: 0x8, addend: 0x0, symName: __ZNSt3__125__bucket_list_deallocatorINS_9allocatorIPNS_16__hash_node_baseIPNS_11__hash_nodeINS_17__hash_value_typeINS_12basic_stringIcNS_11char_traitsIcEENS1_IcEEEEiEEPvEEEEEEE7__allocB7v160006Ev, symObjAddr: 0x41F0, symBinAddr: 0x10000AC00, symSize: 0x20 }
  - { offsetInCU: 0x12D09, offset: 0x25A1B, size: 0x8, addend: 0x0, symName: __ZNSt3__125__bucket_list_deallocatorINS_9allocatorIPNS_16__hash_node_baseIPNS_11__hash_nodeINS_17__hash_value_typeINS_12basic_stringIcNS_11char_traitsIcEENS1_IcEEEEiEEPvEEEEEEE4sizeB7v160006Ev, symObjAddr: 0x4210, symBinAddr: 0x10000AC20, symSize: 0x20 }
  - { offsetInCU: 0x12D2E, offset: 0x25A40, size: 0x8, addend: 0x0, symName: __ZNSt3__19allocatorIPNS_16__hash_node_baseIPNS_11__hash_nodeINS_17__hash_value_typeINS_12basic_stringIcNS_11char_traitsIcEENS0_IcEEEEiEEPvEEEEE10deallocateB7v160006EPSE_m, symObjAddr: 0x4230, symBinAddr: 0x10000AC40, symSize: 0x40 }
  - { offsetInCU: 0x12D6F, offset: 0x25A81, size: 0x8, addend: 0x0, symName: __ZNSt3__117__compressed_pairImNS_9allocatorIPNS_16__hash_node_baseIPNS_11__hash_nodeINS_17__hash_value_typeINS_12basic_stringIcNS_11char_traitsIcEENS1_IcEEEEiEEPvEEEEEEE6secondB7v160006Ev, symObjAddr: 0x4270, symBinAddr: 0x10000AC80, symSize: 0x20 }
  - { offsetInCU: 0x12D94, offset: 0x25AA6, size: 0x8, addend: 0x0, symName: __ZNSt3__122__compressed_pair_elemINS_9allocatorIPNS_16__hash_node_baseIPNS_11__hash_nodeINS_17__hash_value_typeINS_12basic_stringIcNS_11char_traitsIcEENS1_IcEEEEiEEPvEEEEEELi1ELb1EE5__getB7v160006Ev, symObjAddr: 0x4290, symBinAddr: 0x10000ACA0, symSize: 0x10 }
  - { offsetInCU: 0x12DB9, offset: 0x25ACB, size: 0x8, addend: 0x0, symName: __ZNSt3__117__compressed_pairImNS_9allocatorIPNS_16__hash_node_baseIPNS_11__hash_nodeINS_17__hash_value_typeINS_12basic_stringIcNS_11char_traitsIcEENS1_IcEEEEiEEPvEEEEEEE5firstB7v160006Ev, symObjAddr: 0x42A0, symBinAddr: 0x10000ACB0, symSize: 0x20 }
  - { offsetInCU: 0x12DDE, offset: 0x25AF0, size: 0x8, addend: 0x0, symName: __ZNSt3__122__compressed_pair_elemImLi0ELb0EE5__getB7v160006Ev, symObjAddr: 0x42C0, symBinAddr: 0x10000ACD0, symSize: 0x10 }
  - { offsetInCU: 0x12E03, offset: 0x25B15, size: 0x8, addend: 0x0, symName: __ZNSt3__112__hash_tableINS_17__hash_value_typeINS_12basic_stringIcNS_11char_traitsIcEENS_9allocatorIcEEEEiEENS_22__unordered_map_hasherIS7_S8_NS_4hashIS7_EENS_8equal_toIS7_EELb1EEENS_21__unordered_map_equalIS7_S8_SD_SB_Lb1EEENS5_IS8_EEE15__assign_uniqueIPKNS_4pairIKS7_iEEEEvT_SP_, symObjAddr: 0x4380, symBinAddr: 0x10000ACE0, symSize: 0x190 }
  - { offsetInCU: 0x12E7A, offset: 0x25B8C, size: 0x8, addend: 0x0, symName: __ZNKSt16initializer_listINSt3__14pairIKNS0_12basic_stringIcNS0_11char_traitsIcEENS0_9allocatorIcEEEEiEEE5beginB7v160006Ev, symObjAddr: 0x4510, symBinAddr: 0x10000AE70, symSize: 0x20 }
  - { offsetInCU: 0x12E9F, offset: 0x25BB1, size: 0x8, addend: 0x0, symName: __ZNKSt16initializer_listINSt3__14pairIKNS0_12basic_stringIcNS0_11char_traitsIcEENS0_9allocatorIcEEEEiEEE3endB7v160006Ev, symObjAddr: 0x4530, symBinAddr: 0x10000AE90, symSize: 0x20 }
  - { offsetInCU: 0x12EC4, offset: 0x25BD6, size: 0x8, addend: 0x0, symName: __ZNKSt3__112__hash_tableINS_17__hash_value_typeINS_12basic_stringIcNS_11char_traitsIcEENS_9allocatorIcEEEEiEENS_22__unordered_map_hasherIS7_S8_NS_4hashIS7_EENS_8equal_toIS7_EELb1EEENS_21__unordered_map_equalIS7_S8_SD_SB_Lb1EEENS5_IS8_EEE12bucket_countB7v160006Ev, symObjAddr: 0x4550, symBinAddr: 0x10000AEB0, symSize: 0x30 }
  - { offsetInCU: 0x12EE9, offset: 0x25BFB, size: 0x8, addend: 0x0, symName: __ZNSt3__112__hash_tableINS_17__hash_value_typeINS_12basic_stringIcNS_11char_traitsIcEENS_9allocatorIcEEEEiEENS_22__unordered_map_hasherIS7_S8_NS_4hashIS7_EENS_8equal_toIS7_EELb1EEENS_21__unordered_map_equalIS7_S8_SD_SB_Lb1EEENS5_IS8_EEE8__detachEv, symObjAddr: 0x4580, symBinAddr: 0x10000AEE0, symSize: 0xB0 }
  - { offsetInCU: 0x12F42, offset: 0x25C54, size: 0x8, addend: 0x0, symName: __ZNSt3__117__hash_value_typeINS_12basic_stringIcNS_11char_traitsIcEENS_9allocatorIcEEEEiEaSB7v160006IRKNS_4pairIKS6_iEEvEERS7_OT_, symObjAddr: 0x4630, symBinAddr: 0x10000AF90, symSize: 0x50 }
  - { offsetInCU: 0x12F80, offset: 0x25C92, size: 0x8, addend: 0x0, symName: __ZNSt3__112__hash_tableINS_17__hash_value_typeINS_12basic_stringIcNS_11char_traitsIcEENS_9allocatorIcEEEEiEENS_22__unordered_map_hasherIS7_S8_NS_4hashIS7_EENS_8equal_toIS7_EELb1EEENS_21__unordered_map_equalIS7_S8_SD_SB_Lb1EEENS5_IS8_EEE20__node_insert_uniqueEPNS_11__hash_nodeIS8_PvEE, symObjAddr: 0x4680, symBinAddr: 0x10000AFE0, symSize: 0xC0 }
  - { offsetInCU: 0x12FD3, offset: 0x25CE5, size: 0x8, addend: 0x0, symName: __ZNSt3__112__hash_tableINS_17__hash_value_typeINS_12basic_stringIcNS_11char_traitsIcEENS_9allocatorIcEEEEiEENS_22__unordered_map_hasherIS7_S8_NS_4hashIS7_EENS_8equal_toIS7_EELb1EEENS_21__unordered_map_equalIS7_S8_SD_SB_Lb1EEENS5_IS8_EEE15__insert_uniqueB7v160006ERKNS_4pairIKS7_iEE, symObjAddr: 0x4740, symBinAddr: 0x10000B0A0, symSize: 0x50 }
  - { offsetInCU: 0x13007, offset: 0x25D19, size: 0x8, addend: 0x0, symName: __ZNKSt3__110unique_ptrIA_PNS_16__hash_node_baseIPNS_11__hash_nodeINS_17__hash_value_typeINS_12basic_stringIcNS_11char_traitsIcEENS_9allocatorIcEEEEiEEPvEEEENS_25__bucket_list_deallocatorINS7_ISF_EEEEE11get_deleterB7v160006Ev, symObjAddr: 0x4790, symBinAddr: 0x10000B0F0, symSize: 0x20 }
  - { offsetInCU: 0x1302C, offset: 0x25D3E, size: 0x8, addend: 0x0, symName: __ZNKSt3__125__bucket_list_deallocatorINS_9allocatorIPNS_16__hash_node_baseIPNS_11__hash_nodeINS_17__hash_value_typeINS_12basic_stringIcNS_11char_traitsIcEENS1_IcEEEEiEEPvEEEEEEE4sizeB7v160006Ev, symObjAddr: 0x47B0, symBinAddr: 0x10000B110, symSize: 0x20 }
  - { offsetInCU: 0x13051, offset: 0x25D63, size: 0x8, addend: 0x0, symName: __ZNKSt3__117__compressed_pairIPPNS_16__hash_node_baseIPNS_11__hash_nodeINS_17__hash_value_typeINS_12basic_stringIcNS_11char_traitsIcEENS_9allocatorIcEEEEiEEPvEEEENS_25__bucket_list_deallocatorINS7_ISF_EEEEE6secondB7v160006Ev, symObjAddr: 0x47D0, symBinAddr: 0x10000B130, symSize: 0x20 }
  - { offsetInCU: 0x13076, offset: 0x25D88, size: 0x8, addend: 0x0, symName: __ZNKSt3__122__compressed_pair_elemINS_25__bucket_list_deallocatorINS_9allocatorIPNS_16__hash_node_baseIPNS_11__hash_nodeINS_17__hash_value_typeINS_12basic_stringIcNS_11char_traitsIcEENS2_IcEEEEiEEPvEEEEEEEELi1ELb0EE5__getB7v160006Ev, symObjAddr: 0x47F0, symBinAddr: 0x10000B150, symSize: 0x10 }
  - { offsetInCU: 0x1309B, offset: 0x25DAD, size: 0x8, addend: 0x0, symName: __ZNKSt3__117__compressed_pairImNS_9allocatorIPNS_16__hash_node_baseIPNS_11__hash_nodeINS_17__hash_value_typeINS_12basic_stringIcNS_11char_traitsIcEENS1_IcEEEEiEEPvEEEEEEE5firstB7v160006Ev, symObjAddr: 0x4800, symBinAddr: 0x10000B160, symSize: 0x20 }
  - { offsetInCU: 0x130C0, offset: 0x25DD2, size: 0x8, addend: 0x0, symName: __ZNKSt3__122__compressed_pair_elemImLi0ELb0EE5__getB7v160006Ev, symObjAddr: 0x4820, symBinAddr: 0x10000B180, symSize: 0x10 }
  - { offsetInCU: 0x130E5, offset: 0x25DF7, size: 0x8, addend: 0x0, symName: __ZNKSt3__110unique_ptrIA_PNS_16__hash_node_baseIPNS_11__hash_nodeINS_17__hash_value_typeINS_12basic_stringIcNS_11char_traitsIcEENS_9allocatorIcEEEEiEEPvEEEENS_25__bucket_list_deallocatorINS7_ISF_EEEEEixB7v160006Em, symObjAddr: 0x4830, symBinAddr: 0x10000B190, symSize: 0x30 }
  - { offsetInCU: 0x13119, offset: 0x25E2B, size: 0x8, addend: 0x0, symName: __ZNSt3__112__hash_tableINS_17__hash_value_typeINS_12basic_stringIcNS_11char_traitsIcEENS_9allocatorIcEEEEiEENS_22__unordered_map_hasherIS7_S8_NS_4hashIS7_EENS_8equal_toIS7_EELb1EEENS_21__unordered_map_equalIS7_S8_SD_SB_Lb1EEENS5_IS8_EEE4sizeB7v160006Ev, symObjAddr: 0x4860, symBinAddr: 0x10000B1C0, symSize: 0x20 }
  - { offsetInCU: 0x1313E, offset: 0x25E50, size: 0x8, addend: 0x0, symName: __ZNKSt3__117__compressed_pairIPPNS_16__hash_node_baseIPNS_11__hash_nodeINS_17__hash_value_typeINS_12basic_stringIcNS_11char_traitsIcEENS_9allocatorIcEEEEiEEPvEEEENS_25__bucket_list_deallocatorINS7_ISF_EEEEE5firstB7v160006Ev, symObjAddr: 0x4880, symBinAddr: 0x10000B1E0, symSize: 0x20 }
  - { offsetInCU: 0x13163, offset: 0x25E75, size: 0x8, addend: 0x0, symName: __ZNKSt3__122__compressed_pair_elemIPPNS_16__hash_node_baseIPNS_11__hash_nodeINS_17__hash_value_typeINS_12basic_stringIcNS_11char_traitsIcEENS_9allocatorIcEEEEiEEPvEEEELi0ELb0EE5__getB7v160006Ev, symObjAddr: 0x48A0, symBinAddr: 0x10000B200, symSize: 0x10 }
  - { offsetInCU: 0x13188, offset: 0x25E9A, size: 0x8, addend: 0x0, symName: __ZNSt3__117__compressed_pairImNS_22__unordered_map_hasherINS_12basic_stringIcNS_11char_traitsIcEENS_9allocatorIcEEEENS_17__hash_value_typeIS7_iEENS_4hashIS7_EENS_8equal_toIS7_EELb1EEEE5firstB7v160006Ev, symObjAddr: 0x48B0, symBinAddr: 0x10000B210, symSize: 0x20 }
  - { offsetInCU: 0x131AD, offset: 0x25EBF, size: 0x8, addend: 0x0, symName: __ZNSt3__117__hash_value_typeINS_12basic_stringIcNS_11char_traitsIcEENS_9allocatorIcEEEEiE5__refB7v160006Ev, symObjAddr: 0x48D0, symBinAddr: 0x10000B230, symSize: 0x40 }
  - { offsetInCU: 0x131E1, offset: 0x25EF3, size: 0x8, addend: 0x0, symName: __ZNSt3__14pairIRNS_12basic_stringIcNS_11char_traitsIcEENS_9allocatorIcEEEERiEaSB7v160006IRKNS0_IKS6_iEELPv0EEERS9_OT_, symObjAddr: 0x4910, symBinAddr: 0x10000B270, symSize: 0x50 }
  - { offsetInCU: 0x13224, offset: 0x25F36, size: 0x8, addend: 0x0, symName: __ZNSt3__14pairIRNS_12basic_stringIcNS_11char_traitsIcEENS_9allocatorIcEEEERiEC1B7v160006ILb1ELPv0EEES7_S8_, symObjAddr: 0x4960, symBinAddr: 0x10000B2C0, symSize: 0x30 }
  - { offsetInCU: 0x13279, offset: 0x25F8B, size: 0x8, addend: 0x0, symName: __ZNSt3__14pairIRNS_12basic_stringIcNS_11char_traitsIcEENS_9allocatorIcEEEERiEC2B7v160006ILb1ELPv0EEES7_S8_, symObjAddr: 0x4990, symBinAddr: 0x10000B2F0, symSize: 0x30 }
  - { offsetInCU: 0x132CE, offset: 0x25FE0, size: 0x8, addend: 0x0, symName: __ZNSt3__110__get_pairILm0EE3getB7v160006IKNS_12basic_stringIcNS_11char_traitsIcEENS_9allocatorIcEEEEiEERKT_RKNS_4pairISA_T0_EE, symObjAddr: 0x4A00, symBinAddr: 0x10000B360, symSize: 0x10 }
  - { offsetInCU: 0x13309, offset: 0x2601B, size: 0x8, addend: 0x0, symName: __ZNSt3__110__get_pairILm1EE3getB7v160006IKNS_12basic_stringIcNS_11char_traitsIcEENS_9allocatorIcEEEEiEERKT0_RKNS_4pairIT_SA_EE, symObjAddr: 0x4A10, symBinAddr: 0x10000B370, symSize: 0x20 }
  - { offsetInCU: 0x1333F, offset: 0x26051, size: 0x8, addend: 0x0, symName: __ZNSt3__112__hash_tableINS_17__hash_value_typeINS_12basic_stringIcNS_11char_traitsIcEENS_9allocatorIcEEEEiEENS_22__unordered_map_hasherIS7_S8_NS_4hashIS7_EENS_8equal_toIS7_EELb1EEENS_21__unordered_map_equalIS7_S8_SD_SB_Lb1EEENS5_IS8_EEE13hash_functionB7v160006Ev, symObjAddr: 0x4A30, symBinAddr: 0x10000B390, symSize: 0x20 }
  - { offsetInCU: 0x13364, offset: 0x26076, size: 0x8, addend: 0x0, symName: __ZNKSt3__122__unordered_map_hasherINS_12basic_stringIcNS_11char_traitsIcEENS_9allocatorIcEEEENS_17__hash_value_typeIS6_iEENS_4hashIS6_EENS_8equal_toIS6_EELb1EEclB7v160006ERKS8_, symObjAddr: 0x4A50, symBinAddr: 0x10000B3B0, symSize: 0x40 }
  - { offsetInCU: 0x13398, offset: 0x260AA, size: 0x8, addend: 0x0, symName: __ZNSt3__112__hash_tableINS_17__hash_value_typeINS_12basic_stringIcNS_11char_traitsIcEENS_9allocatorIcEEEEiEENS_22__unordered_map_hasherIS7_S8_NS_4hashIS7_EENS_8equal_toIS7_EELb1EEENS_21__unordered_map_equalIS7_S8_SD_SB_Lb1EEENS5_IS8_EEE28__node_insert_unique_prepareB7v160006EmRS8_, symObjAddr: 0x4A90, symBinAddr: 0x10000B3F0, symSize: 0x2D0 }
  - { offsetInCU: 0x13417, offset: 0x26129, size: 0x8, addend: 0x0, symName: __ZNKSt3__116__hash_node_baseIPNS_11__hash_nodeINS_17__hash_value_typeINS_12basic_stringIcNS_11char_traitsIcEENS_9allocatorIcEEEEiEEPvEEE6__hashB7v160006Ev, symObjAddr: 0x4D60, symBinAddr: 0x10000B6C0, symSize: 0x20 }
  - { offsetInCU: 0x1343C, offset: 0x2614E, size: 0x8, addend: 0x0, symName: __ZNSt3__112__hash_tableINS_17__hash_value_typeINS_12basic_stringIcNS_11char_traitsIcEENS_9allocatorIcEEEEiEENS_22__unordered_map_hasherIS7_S8_NS_4hashIS7_EENS_8equal_toIS7_EELb1EEENS_21__unordered_map_equalIS7_S8_SD_SB_Lb1EEENS5_IS8_EEE28__node_insert_unique_performB7v160006EPNS_11__hash_nodeIS8_PvEE, symObjAddr: 0x4D80, symBinAddr: 0x10000B6E0, symSize: 0x140 }
  - { offsetInCU: 0x1349E, offset: 0x261B0, size: 0x8, addend: 0x0, symName: __ZNSt3__116__hash_node_baseIPNS_11__hash_nodeINS_17__hash_value_typeINS_12basic_stringIcNS_11char_traitsIcEENS_9allocatorIcEEEEiEEPvEEE5__ptrB7v160006Ev, symObjAddr: 0x4EC0, symBinAddr: 0x10000B820, symSize: 0x20 }
  - { offsetInCU: 0x134C3, offset: 0x261D5, size: 0x8, addend: 0x0, symName: __ZNSt3__115__hash_iteratorIPNS_11__hash_nodeINS_17__hash_value_typeINS_12basic_stringIcNS_11char_traitsIcEENS_9allocatorIcEEEEiEEPvEEEC1B7v160006EPNS_16__hash_node_baseISC_EEPKv, symObjAddr: 0x4EE0, symBinAddr: 0x10000B840, symSize: 0x30 }
  - { offsetInCU: 0x13514, offset: 0x26226, size: 0x8, addend: 0x0, symName: __ZNSt3__14pairINS_15__hash_iteratorIPNS_11__hash_nodeINS_17__hash_value_typeINS_12basic_stringIcNS_11char_traitsIcEENS_9allocatorIcEEEEiEEPvEEEEbEC1B7v160006ISE_RbLSB_0EEEOT_OT0_, symObjAddr: 0x4F10, symBinAddr: 0x10000B870, symSize: 0x30 }
  - { offsetInCU: 0x13571, offset: 0x26283, size: 0x8, addend: 0x0, symName: __ZNSt3__117__compressed_pairImNS_22__unordered_map_hasherINS_12basic_stringIcNS_11char_traitsIcEENS_9allocatorIcEEEENS_17__hash_value_typeIS7_iEENS_4hashIS7_EENS_8equal_toIS7_EELb1EEEE6secondB7v160006Ev, symObjAddr: 0x4F40, symBinAddr: 0x10000B8A0, symSize: 0x20 }
  - { offsetInCU: 0x13596, offset: 0x262A8, size: 0x8, addend: 0x0, symName: __ZNSt3__122__compressed_pair_elemINS_22__unordered_map_hasherINS_12basic_stringIcNS_11char_traitsIcEENS_9allocatorIcEEEENS_17__hash_value_typeIS7_iEENS_4hashIS7_EENS_8equal_toIS7_EELb1EEELi1ELb1EE5__getB7v160006Ev, symObjAddr: 0x4F60, symBinAddr: 0x10000B8C0, symSize: 0x10 }
  - { offsetInCU: 0x135BB, offset: 0x262CD, size: 0x8, addend: 0x0, symName: __ZNKSt3__113__string_hashIcNS_9allocatorIcEEEclERKNS_12basic_stringIcNS_11char_traitsIcEES2_EE, symObjAddr: 0x4F70, symBinAddr: 0x10000B8D0, symSize: 0x60 }
  - { offsetInCU: 0x135EF, offset: 0x26301, size: 0x8, addend: 0x0, symName: __ZNKSt3__117__hash_value_typeINS_12basic_stringIcNS_11char_traitsIcEENS_9allocatorIcEEEEiE11__get_valueB7v160006Ev, symObjAddr: 0x4FD0, symBinAddr: 0x10000B930, symSize: 0x20 }
  - { offsetInCU: 0x13614, offset: 0x26326, size: 0x8, addend: 0x0, symName: __ZNSt3__121__murmur2_or_cityhashImLm64EEclEPKvm, symObjAddr: 0x50B0, symBinAddr: 0x10000B990, symSize: 0x3D0 }
  - { offsetInCU: 0x136AC, offset: 0x263BE, size: 0x8, addend: 0x0, symName: __ZNSt3__121__murmur2_or_cityhashImLm64EE18__hash_len_0_to_16EPKcm, symObjAddr: 0x5480, symBinAddr: 0x10000BD60, symSize: 0x180 }
  - { offsetInCU: 0x13785, offset: 0x26497, size: 0x8, addend: 0x0, symName: __ZNSt3__121__murmur2_or_cityhashImLm64EE19__hash_len_17_to_32EPKcm, symObjAddr: 0x5600, symBinAddr: 0x10000BEE0, symSize: 0x100 }
  - { offsetInCU: 0x137EE, offset: 0x26500, size: 0x8, addend: 0x0, symName: __ZNSt3__121__murmur2_or_cityhashImLm64EE19__hash_len_33_to_64EPKcm, symObjAddr: 0x5700, symBinAddr: 0x10000BFE0, symSize: 0x260 }
  - { offsetInCU: 0x138A0, offset: 0x265B2, size: 0x8, addend: 0x0, symName: __ZNSt3__121__murmur2_or_cityhashImLm64EE13__hash_len_16Emm, symObjAddr: 0x5980, symBinAddr: 0x10000C260, symSize: 0x90 }
  - { offsetInCU: 0x138FB, offset: 0x2660D, size: 0x8, addend: 0x0, symName: __ZNSt3__121__murmur2_or_cityhashImLm64EE29__weak_hash_len_32_with_seedsEPKcmm, symObjAddr: 0x5A10, symBinAddr: 0x10000C2F0, symSize: 0x90 }
  - { offsetInCU: 0x1393A, offset: 0x2664C, size: 0x8, addend: 0x0, symName: __ZNSt3__121__murmur2_or_cityhashImLm64EE8__rotateEmi, symObjAddr: 0x5AA0, symBinAddr: 0x10000C380, symSize: 0x50 }
  - { offsetInCU: 0x1396B, offset: 0x2667D, size: 0x8, addend: 0x0, symName: __ZNSt3__14pairImmEaSB7v160006EOS1_, symObjAddr: 0x5AF0, symBinAddr: 0x10000C3D0, symSize: 0x30 }
  - { offsetInCU: 0x1399F, offset: 0x266B1, size: 0x8, addend: 0x0, symName: __ZNSt3__121__murmur2_or_cityhashImLm64EE11__shift_mixEm, symObjAddr: 0x5B60, symBinAddr: 0x10000C440, symSize: 0x20 }
  - { offsetInCU: 0x139C2, offset: 0x266D4, size: 0x8, addend: 0x0, symName: __ZNSt3__121__murmur2_or_cityhashImLm64EE22__rotate_by_at_least_1Emi, symObjAddr: 0x5B80, symBinAddr: 0x10000C460, symSize: 0x30 }
  - { offsetInCU: 0x139F3, offset: 0x26705, size: 0x8, addend: 0x0, symName: __ZNSt3__121__murmur2_or_cityhashImLm64EE29__weak_hash_len_32_with_seedsEmmmmmm, symObjAddr: 0x5BD0, symBinAddr: 0x10000C4B0, symSize: 0xD0 }
  - { offsetInCU: 0x13A70, offset: 0x26782, size: 0x8, addend: 0x0, symName: __ZNSt3__14pairImmEC1B7v160006ImmLPv0EEEOT_OT0_, symObjAddr: 0x5CA0, symBinAddr: 0x10000C580, symSize: 0x30 }
  - { offsetInCU: 0x13ACD, offset: 0x267DF, size: 0x8, addend: 0x0, symName: __ZNSt3__14pairImmEC2B7v160006ImmLPv0EEEOT_OT0_, symObjAddr: 0x5CD0, symBinAddr: 0x10000C5B0, symSize: 0x30 }
  - { offsetInCU: 0x13B2A, offset: 0x2683C, size: 0x8, addend: 0x0, symName: __ZNSt3__112__hash_tableINS_17__hash_value_typeINS_12basic_stringIcNS_11char_traitsIcEENS_9allocatorIcEEEEiEENS_22__unordered_map_hasherIS7_S8_NS_4hashIS7_EENS_8equal_toIS7_EELb1EEENS_21__unordered_map_equalIS7_S8_SD_SB_Lb1EEENS5_IS8_EEE6key_eqB7v160006Ev, symObjAddr: 0x5F20, symBinAddr: 0x10000C690, symSize: 0x20 }
  - { offsetInCU: 0x13B4F, offset: 0x26861, size: 0x8, addend: 0x0, symName: __ZNKSt3__121__unordered_map_equalINS_12basic_stringIcNS_11char_traitsIcEENS_9allocatorIcEEEENS_17__hash_value_typeIS6_iEENS_8equal_toIS6_EENS_4hashIS6_EELb1EEclB7v160006ERKS8_SF_, symObjAddr: 0x5F40, symBinAddr: 0x10000C6B0, symSize: 0x50 }
  - { offsetInCU: 0x13B92, offset: 0x268A4, size: 0x8, addend: 0x0, symName: __ZNSt3__112__hash_tableINS_17__hash_value_typeINS_12basic_stringIcNS_11char_traitsIcEENS_9allocatorIcEEEEiEENS_22__unordered_map_hasherIS7_S8_NS_4hashIS7_EENS_8equal_toIS7_EELb1EEENS_21__unordered_map_equalIS7_S8_SD_SB_Lb1EEENS5_IS8_EEE15max_load_factorB7v160006Ev, symObjAddr: 0x5F90, symBinAddr: 0x10000C700, symSize: 0x20 }
  - { offsetInCU: 0x13BB7, offset: 0x268C9, size: 0x8, addend: 0x0, symName: __ZNSt3__112__hash_tableINS_17__hash_value_typeINS_12basic_stringIcNS_11char_traitsIcEENS_9allocatorIcEEEEiEENS_22__unordered_map_hasherIS7_S8_NS_4hashIS7_EENS_8equal_toIS7_EELb1EEENS_21__unordered_map_equalIS7_S8_SD_SB_Lb1EEENS5_IS8_EEE15__rehash_uniqueB7v160006Em, symObjAddr: 0x5FB0, symBinAddr: 0x10000C720, symSize: 0x30 }
  - { offsetInCU: 0x13BEA, offset: 0x268FC, size: 0x8, addend: 0x0, symName: __Z4ceilB7v160006f, symObjAddr: 0x6050, symBinAddr: 0x10000C790, symSize: 0x20 }
  - { offsetInCU: 0x13C19, offset: 0x2692B, size: 0x8, addend: 0x0, symName: __ZNSt3__117__compressed_pairIfNS_21__unordered_map_equalINS_12basic_stringIcNS_11char_traitsIcEENS_9allocatorIcEEEENS_17__hash_value_typeIS7_iEENS_8equal_toIS7_EENS_4hashIS7_EELb1EEEE6secondB7v160006Ev, symObjAddr: 0x6070, symBinAddr: 0x10000C7B0, symSize: 0x20 }
  - { offsetInCU: 0x13C3E, offset: 0x26950, size: 0x8, addend: 0x0, symName: __ZNSt3__122__compressed_pair_elemINS_21__unordered_map_equalINS_12basic_stringIcNS_11char_traitsIcEENS_9allocatorIcEEEENS_17__hash_value_typeIS7_iEENS_8equal_toIS7_EENS_4hashIS7_EELb1EEELi1ELb1EE5__getB7v160006Ev, symObjAddr: 0x6090, symBinAddr: 0x10000C7D0, symSize: 0x10 }
  - { offsetInCU: 0x13C63, offset: 0x26975, size: 0x8, addend: 0x0, symName: __ZNKSt3__18equal_toINS_12basic_stringIcNS_11char_traitsIcEENS_9allocatorIcEEEEEclB7v160006ERKS6_S9_, symObjAddr: 0x60A0, symBinAddr: 0x10000C7E0, symSize: 0x30 }
  - { offsetInCU: 0x13CA6, offset: 0x269B8, size: 0x8, addend: 0x0, symName: __ZNSt3__111char_traitsIcE7compareEPKcS3_m, symObjAddr: 0x61E0, symBinAddr: 0x10000C920, symSize: 0x60 }
  - { offsetInCU: 0x13CE5, offset: 0x269F7, size: 0x8, addend: 0x0, symName: __ZNSt3__117__compressed_pairIfNS_21__unordered_map_equalINS_12basic_stringIcNS_11char_traitsIcEENS_9allocatorIcEEEENS_17__hash_value_typeIS7_iEENS_8equal_toIS7_EENS_4hashIS7_EELb1EEEE5firstB7v160006Ev, symObjAddr: 0x6270, symBinAddr: 0x10000C9B0, symSize: 0x20 }
  - { offsetInCU: 0x13D0A, offset: 0x26A1C, size: 0x8, addend: 0x0, symName: __ZNSt3__122__compressed_pair_elemIfLi0ELb0EE5__getB7v160006Ev, symObjAddr: 0x6290, symBinAddr: 0x10000C9D0, symSize: 0x10 }
  - { offsetInCU: 0x13D2F, offset: 0x26A41, size: 0x8, addend: 0x0, symName: __ZNSt3__112__hash_tableINS_17__hash_value_typeINS_12basic_stringIcNS_11char_traitsIcEENS_9allocatorIcEEEEiEENS_22__unordered_map_hasherIS7_S8_NS_4hashIS7_EENS_8equal_toIS7_EELb1EEENS_21__unordered_map_equalIS7_S8_SD_SB_Lb1EEENS5_IS8_EEE8__rehashILb1EEEvm, symObjAddr: 0x62A0, symBinAddr: 0x10000C9E0, symSize: 0x230 }
  - { offsetInCU: 0x13D7D, offset: 0x26A8F, size: 0x8, addend: 0x0, symName: __ZNSt3__112__hash_tableINS_17__hash_value_typeINS_12basic_stringIcNS_11char_traitsIcEENS_9allocatorIcEEEEiEENS_22__unordered_map_hasherIS7_S8_NS_4hashIS7_EENS_8equal_toIS7_EELb1EEENS_21__unordered_map_equalIS7_S8_SD_SB_Lb1EEENS5_IS8_EEE11__do_rehashILb1EEEvm, symObjAddr: 0x64D0, symBinAddr: 0x10000CC10, symSize: 0x260 }
  - { offsetInCU: 0x13E5E, offset: 0x26B70, size: 0x8, addend: 0x0, symName: __ZNSt3__110unique_ptrIA_PNS_16__hash_node_baseIPNS_11__hash_nodeINS_17__hash_value_typeINS_12basic_stringIcNS_11char_traitsIcEENS_9allocatorIcEEEEiEEPvEEEENS_25__bucket_list_deallocatorINS7_ISF_EEEEE11get_deleterB7v160006Ev, symObjAddr: 0x67A0, symBinAddr: 0x10000CEE0, symSize: 0x20 }
  - { offsetInCU: 0x13E83, offset: 0x26B95, size: 0x8, addend: 0x0, symName: __ZNSt3__110unique_ptrIA_PNS_16__hash_node_baseIPNS_11__hash_nodeINS_17__hash_value_typeINS_12basic_stringIcNS_11char_traitsIcEENS_9allocatorIcEEEEiEEPvEEEENS_25__bucket_list_deallocatorINS7_ISF_EEEEE5resetB7v160006IPSF_EENS_9enable_ifIXsr28_CheckArrayPointerConversionIT_EE5valueEvE4typeESO_, symObjAddr: 0x67C0, symBinAddr: 0x10000CF00, symSize: 0x70 }
  - { offsetInCU: 0x13ECF, offset: 0x26BE1, size: 0x8, addend: 0x0, symName: __ZNSt3__116allocator_traitsINS_9allocatorIPNS_16__hash_node_baseIPNS_11__hash_nodeINS_17__hash_value_typeINS_12basic_stringIcNS_11char_traitsIcEENS1_IcEEEEiEEPvEEEEEEE8allocateB7v160006ERSG_m, symObjAddr: 0x6830, symBinAddr: 0x10000CF70, symSize: 0x30 }
  - { offsetInCU: 0x13F02, offset: 0x26C14, size: 0x8, addend: 0x0, symName: __ZNSt3__19allocatorIPNS_16__hash_node_baseIPNS_11__hash_nodeINS_17__hash_value_typeINS_12basic_stringIcNS_11char_traitsIcEENS0_IcEEEEiEEPvEEEEE8allocateB7v160006Em, symObjAddr: 0x6860, symBinAddr: 0x10000CFA0, symSize: 0x50 }
  - { offsetInCU: 0x13F3F, offset: 0x26C51, size: 0x8, addend: 0x0, symName: __ZNSt3__116allocator_traitsINS_9allocatorIPNS_16__hash_node_baseIPNS_11__hash_nodeINS_17__hash_value_typeINS_12basic_stringIcNS_11char_traitsIcEENS1_IcEEEEiEEPvEEEEEEE8max_sizeB7v160006ISG_vEEmRKSG_, symObjAddr: 0x68B0, symBinAddr: 0x10000CFF0, symSize: 0x20 }
  - { offsetInCU: 0x13F6D, offset: 0x26C7F, size: 0x8, addend: 0x0, symName: __ZNKSt3__19allocatorIPNS_16__hash_node_baseIPNS_11__hash_nodeINS_17__hash_value_typeINS_12basic_stringIcNS_11char_traitsIcEENS0_IcEEEEiEEPvEEEEE8max_sizeB7v160006Ev, symObjAddr: 0x68D0, symBinAddr: 0x10000D010, symSize: 0x20 }
  - { offsetInCU: 0x13F92, offset: 0x26CA4, size: 0x8, addend: 0x0, symName: __ZNSt3__115__hash_iteratorIPNS_11__hash_nodeINS_17__hash_value_typeINS_12basic_stringIcNS_11char_traitsIcEENS_9allocatorIcEEEEiEEPvEEEC2B7v160006EPNS_16__hash_node_baseISC_EEPKv, symObjAddr: 0x6960, symBinAddr: 0x10000D050, symSize: 0x20 }
  - { offsetInCU: 0x13FD9, offset: 0x26CEB, size: 0x8, addend: 0x0, symName: __ZNSt3__14pairINS_15__hash_iteratorIPNS_11__hash_nodeINS_17__hash_value_typeINS_12basic_stringIcNS_11char_traitsIcEENS_9allocatorIcEEEEiEEPvEEEEbEC2B7v160006ISE_RbLSB_0EEEOT_OT0_, symObjAddr: 0x6980, symBinAddr: 0x10000D070, symSize: 0x30 }
  - { offsetInCU: 0x14036, offset: 0x26D48, size: 0x8, addend: 0x0, symName: __ZNSt3__112__hash_tableINS_17__hash_value_typeINS_12basic_stringIcNS_11char_traitsIcEENS_9allocatorIcEEEEiEENS_22__unordered_map_hasherIS7_S8_NS_4hashIS7_EENS_8equal_toIS7_EELb1EEENS_21__unordered_map_equalIS7_S8_SD_SB_Lb1EEENS5_IS8_EEE25__emplace_unique_key_argsIS7_JRKNS_4pairIKS7_iEEEEENSK_INS_15__hash_iteratorIPNS_11__hash_nodeIS8_PvEEEEbEERKT_DpOT0_, symObjAddr: 0x69B0, symBinAddr: 0x10000D0A0, symSize: 0x590 }
  - { offsetInCU: 0x14112, offset: 0x26E24, size: 0x8, addend: 0x0, symName: __ZNSt3__122__hash_key_value_typesINS_17__hash_value_typeINS_12basic_stringIcNS_11char_traitsIcEENS_9allocatorIcEEEEiEEE9__get_keyB7v160006ERKNS_4pairIKS7_iEE, symObjAddr: 0x6F40, symBinAddr: 0x10000D630, symSize: 0x10 }
  - { offsetInCU: 0x14135, offset: 0x26E47, size: 0x8, addend: 0x0, symName: __ZNKSt3__122__unordered_map_hasherINS_12basic_stringIcNS_11char_traitsIcEENS_9allocatorIcEEEENS_17__hash_value_typeIS6_iEENS_4hashIS6_EENS_8equal_toIS6_EELb1EEclB7v160006ERKS6_, symObjAddr: 0x6F50, symBinAddr: 0x10000D640, symSize: 0x30 }
  - { offsetInCU: 0x14169, offset: 0x26E7B, size: 0x8, addend: 0x0, symName: __ZNKSt3__121__unordered_map_equalINS_12basic_stringIcNS_11char_traitsIcEENS_9allocatorIcEEEENS_17__hash_value_typeIS6_iEENS_8equal_toIS6_EENS_4hashIS6_EELb1EEclB7v160006ERKS8_RKS6_, symObjAddr: 0x6F80, symBinAddr: 0x10000D670, symSize: 0x40 }
  - { offsetInCU: 0x141AC, offset: 0x26EBE, size: 0x8, addend: 0x0, symName: __ZNSt3__112__hash_tableINS_17__hash_value_typeINS_12basic_stringIcNS_11char_traitsIcEENS_9allocatorIcEEEEiEENS_22__unordered_map_hasherIS7_S8_NS_4hashIS7_EENS_8equal_toIS7_EELb1EEENS_21__unordered_map_equalIS7_S8_SD_SB_Lb1EEENS5_IS8_EEE21__construct_node_hashIRKNS_4pairIKS7_iEEJEEENS_10unique_ptrINS_11__hash_nodeIS8_PvEENS_22__hash_node_destructorINS5_ISS_EEEEEEmOT_DpOT0_, symObjAddr: 0x6FC0, symBinAddr: 0x10000D6B0, symSize: 0x140 }
  - { offsetInCU: 0x1421D, offset: 0x26F2F, size: 0x8, addend: 0x0, symName: __ZNKSt3__110unique_ptrINS_11__hash_nodeINS_17__hash_value_typeINS_12basic_stringIcNS_11char_traitsIcEENS_9allocatorIcEEEEiEEPvEENS_22__hash_node_destructorINS6_ISB_EEEEEptB7v160006Ev, symObjAddr: 0x7100, symBinAddr: 0x10000D7F0, symSize: 0x20 }
  - { offsetInCU: 0x14242, offset: 0x26F54, size: 0x8, addend: 0x0, symName: __ZNKSt3__110unique_ptrINS_11__hash_nodeINS_17__hash_value_typeINS_12basic_stringIcNS_11char_traitsIcEENS_9allocatorIcEEEEiEEPvEENS_22__hash_node_destructorINS6_ISB_EEEEE3getB7v160006Ev, symObjAddr: 0x7120, symBinAddr: 0x10000D810, symSize: 0x20 }
  - { offsetInCU: 0x14267, offset: 0x26F79, size: 0x8, addend: 0x0, symName: __ZNSt3__110unique_ptrINS_11__hash_nodeINS_17__hash_value_typeINS_12basic_stringIcNS_11char_traitsIcEENS_9allocatorIcEEEEiEEPvEENS_22__hash_node_destructorINS6_ISB_EEEEE7releaseB7v160006Ev, symObjAddr: 0x7140, symBinAddr: 0x10000D830, symSize: 0x40 }
  - { offsetInCU: 0x1429B, offset: 0x26FAD, size: 0x8, addend: 0x0, symName: __ZNSt3__110unique_ptrINS_11__hash_nodeINS_17__hash_value_typeINS_12basic_stringIcNS_11char_traitsIcEENS_9allocatorIcEEEEiEEPvEENS_22__hash_node_destructorINS6_ISB_EEEEED1B7v160006Ev, symObjAddr: 0x7180, symBinAddr: 0x10000D870, symSize: 0x20 }
  - { offsetInCU: 0x142C4, offset: 0x26FD6, size: 0x8, addend: 0x0, symName: __ZNSt3__116allocator_traitsINS_9allocatorINS_11__hash_nodeINS_17__hash_value_typeINS_12basic_stringIcNS_11char_traitsIcEENS1_IcEEEEiEEPvEEEEE8allocateB7v160006ERSC_m, symObjAddr: 0x71A0, symBinAddr: 0x10000D890, symSize: 0x30 }
  - { offsetInCU: 0x142F7, offset: 0x27009, size: 0x8, addend: 0x0, symName: __ZNSt3__122__hash_node_destructorINS_9allocatorINS_11__hash_nodeINS_17__hash_value_typeINS_12basic_stringIcNS_11char_traitsIcEENS1_IcEEEEiEEPvEEEEEC1B7v160006ERSC_b, symObjAddr: 0x71D0, symBinAddr: 0x10000D8C0, symSize: 0x40 }
  - { offsetInCU: 0x14343, offset: 0x27055, size: 0x8, addend: 0x0, symName: __ZNSt3__110unique_ptrINS_11__hash_nodeINS_17__hash_value_typeINS_12basic_stringIcNS_11char_traitsIcEENS_9allocatorIcEEEEiEEPvEENS_22__hash_node_destructorINS6_ISB_EEEEEC1B7v160006ILb1EvEEPSB_NS_16__dependent_typeINS_27__unique_ptr_deleter_sfinaeISE_EEXT_EE20__good_rval_ref_typeE, symObjAddr: 0x7210, symBinAddr: 0x10000D900, symSize: 0x30 }
  - { offsetInCU: 0x14393, offset: 0x270A5, size: 0x8, addend: 0x0, symName: __ZNSt3__116allocator_traitsINS_9allocatorINS_11__hash_nodeINS_17__hash_value_typeINS_12basic_stringIcNS_11char_traitsIcEENS1_IcEEEEiEEPvEEEEE9constructB7v160006INS_4pairIKS8_iEEJRKSH_EvEEvRSC_PT_DpOT0_, symObjAddr: 0x7240, symBinAddr: 0x10000D930, symSize: 0x30 }
  - { offsetInCU: 0x143EA, offset: 0x270FC, size: 0x8, addend: 0x0, symName: __ZNSt3__110unique_ptrINS_11__hash_nodeINS_17__hash_value_typeINS_12basic_stringIcNS_11char_traitsIcEENS_9allocatorIcEEEEiEEPvEENS_22__hash_node_destructorINS6_ISB_EEEEE11get_deleterB7v160006Ev, symObjAddr: 0x7270, symBinAddr: 0x10000D960, symSize: 0x20 }
  - { offsetInCU: 0x1440F, offset: 0x27121, size: 0x8, addend: 0x0, symName: __ZNSt3__19allocatorINS_11__hash_nodeINS_17__hash_value_typeINS_12basic_stringIcNS_11char_traitsIcEENS0_IcEEEEiEEPvEEE8allocateB7v160006Em, symObjAddr: 0x7290, symBinAddr: 0x10000D980, symSize: 0x50 }
  - { offsetInCU: 0x1444C, offset: 0x2715E, size: 0x8, addend: 0x0, symName: __ZNSt3__116allocator_traitsINS_9allocatorINS_11__hash_nodeINS_17__hash_value_typeINS_12basic_stringIcNS_11char_traitsIcEENS1_IcEEEEiEEPvEEEEE8max_sizeB7v160006ISC_vEEmRKSC_, symObjAddr: 0x72E0, symBinAddr: 0x10000D9D0, symSize: 0x20 }
  - { offsetInCU: 0x1447A, offset: 0x2718C, size: 0x8, addend: 0x0, symName: __ZNKSt3__19allocatorINS_11__hash_nodeINS_17__hash_value_typeINS_12basic_stringIcNS_11char_traitsIcEENS0_IcEEEEiEEPvEEE8max_sizeB7v160006Ev, symObjAddr: 0x7300, symBinAddr: 0x10000D9F0, symSize: 0x20 }
  - { offsetInCU: 0x1449F, offset: 0x271B1, size: 0x8, addend: 0x0, symName: __ZNSt3__122__hash_node_destructorINS_9allocatorINS_11__hash_nodeINS_17__hash_value_typeINS_12basic_stringIcNS_11char_traitsIcEENS1_IcEEEEiEEPvEEEEEC2B7v160006ERSC_b, symObjAddr: 0x7320, symBinAddr: 0x10000DA10, symSize: 0x30 }
  - { offsetInCU: 0x144E6, offset: 0x271F8, size: 0x8, addend: 0x0, symName: __ZNSt3__110unique_ptrINS_11__hash_nodeINS_17__hash_value_typeINS_12basic_stringIcNS_11char_traitsIcEENS_9allocatorIcEEEEiEEPvEENS_22__hash_node_destructorINS6_ISB_EEEEEC2B7v160006ILb1EvEEPSB_NS_16__dependent_typeINS_27__unique_ptr_deleter_sfinaeISE_EEXT_EE20__good_rval_ref_typeE, symObjAddr: 0x7350, symBinAddr: 0x10000DA40, symSize: 0x40 }
  - { offsetInCU: 0x14536, offset: 0x27248, size: 0x8, addend: 0x0, symName: __ZNSt3__117__compressed_pairIPNS_11__hash_nodeINS_17__hash_value_typeINS_12basic_stringIcNS_11char_traitsIcEENS_9allocatorIcEEEEiEEPvEENS_22__hash_node_destructorINS6_ISB_EEEEEC1B7v160006IRSC_SF_EEOT_OT0_, symObjAddr: 0x7390, symBinAddr: 0x10000DA80, symSize: 0x30 }
  - { offsetInCU: 0x1458D, offset: 0x2729F, size: 0x8, addend: 0x0, symName: __ZNSt3__117__compressed_pairIPNS_11__hash_nodeINS_17__hash_value_typeINS_12basic_stringIcNS_11char_traitsIcEENS_9allocatorIcEEEEiEEPvEENS_22__hash_node_destructorINS6_ISB_EEEEEC2B7v160006IRSC_SF_EEOT_OT0_, symObjAddr: 0x73C0, symBinAddr: 0x10000DAB0, symSize: 0x40 }
  - { offsetInCU: 0x145E4, offset: 0x272F6, size: 0x8, addend: 0x0, symName: __ZNSt3__122__compressed_pair_elemIPNS_11__hash_nodeINS_17__hash_value_typeINS_12basic_stringIcNS_11char_traitsIcEENS_9allocatorIcEEEEiEEPvEELi0ELb0EEC2B7v160006IRSC_vEEOT_, symObjAddr: 0x7400, symBinAddr: 0x10000DAF0, symSize: 0x20 }
  - { offsetInCU: 0x14625, offset: 0x27337, size: 0x8, addend: 0x0, symName: __ZNSt3__122__compressed_pair_elemINS_22__hash_node_destructorINS_9allocatorINS_11__hash_nodeINS_17__hash_value_typeINS_12basic_stringIcNS_11char_traitsIcEENS2_IcEEEEiEEPvEEEEEELi1ELb0EEC2B7v160006ISE_vEEOT_, symObjAddr: 0x7420, symBinAddr: 0x10000DB10, symSize: 0x30 }
  - { offsetInCU: 0x14666, offset: 0x27378, size: 0x8, addend: 0x0, symName: __ZNSt3__19allocatorINS_11__hash_nodeINS_17__hash_value_typeINS_12basic_stringIcNS_11char_traitsIcEENS0_IcEEEEiEEPvEEE9constructB7v160006INS_4pairIKS7_iEEJRKSF_EEEvPT_DpOT0_, symObjAddr: 0x7450, symBinAddr: 0x10000DB40, symSize: 0x30 }
  - { offsetInCU: 0x146BB, offset: 0x273CD, size: 0x8, addend: 0x0, symName: __ZNSt3__14pairIKNS_12basic_stringIcNS_11char_traitsIcEENS_9allocatorIcEEEEiEC1ERKS8_, symObjAddr: 0x7480, symBinAddr: 0x10000DB70, symSize: 0x30 }
  - { offsetInCU: 0x146EE, offset: 0x27400, size: 0x8, addend: 0x0, symName: __ZNSt3__14pairIKNS_12basic_stringIcNS_11char_traitsIcEENS_9allocatorIcEEEEiEC2ERKS8_, symObjAddr: 0x74B0, symBinAddr: 0x10000DBA0, symSize: 0x40 }
  - { offsetInCU: 0x14721, offset: 0x27433, size: 0x8, addend: 0x0, symName: __ZNSt3__117__compressed_pairIPNS_11__hash_nodeINS_17__hash_value_typeINS_12basic_stringIcNS_11char_traitsIcEENS_9allocatorIcEEEEiEEPvEENS_22__hash_node_destructorINS6_ISB_EEEEE6secondB7v160006Ev, symObjAddr: 0x74F0, symBinAddr: 0x10000DBE0, symSize: 0x20 }
  - { offsetInCU: 0x14746, offset: 0x27458, size: 0x8, addend: 0x0, symName: __ZNSt3__122__compressed_pair_elemINS_22__hash_node_destructorINS_9allocatorINS_11__hash_nodeINS_17__hash_value_typeINS_12basic_stringIcNS_11char_traitsIcEENS2_IcEEEEiEEPvEEEEEELi1ELb0EE5__getB7v160006Ev, symObjAddr: 0x7510, symBinAddr: 0x10000DC00, symSize: 0x10 }
  - { offsetInCU: 0x1476B, offset: 0x2747D, size: 0x8, addend: 0x0, symName: __ZNKSt3__117__compressed_pairIPNS_11__hash_nodeINS_17__hash_value_typeINS_12basic_stringIcNS_11char_traitsIcEENS_9allocatorIcEEEEiEEPvEENS_22__hash_node_destructorINS6_ISB_EEEEE5firstB7v160006Ev, symObjAddr: 0x7520, symBinAddr: 0x10000DC10, symSize: 0x20 }
  - { offsetInCU: 0x14790, offset: 0x274A2, size: 0x8, addend: 0x0, symName: __ZNKSt3__122__compressed_pair_elemIPNS_11__hash_nodeINS_17__hash_value_typeINS_12basic_stringIcNS_11char_traitsIcEENS_9allocatorIcEEEEiEEPvEELi0ELb0EE5__getB7v160006Ev, symObjAddr: 0x7540, symBinAddr: 0x10000DC30, symSize: 0x10 }
  - { offsetInCU: 0x147B5, offset: 0x274C7, size: 0x8, addend: 0x0, symName: __ZNSt3__117__compressed_pairIPNS_11__hash_nodeINS_17__hash_value_typeINS_12basic_stringIcNS_11char_traitsIcEENS_9allocatorIcEEEEiEEPvEENS_22__hash_node_destructorINS6_ISB_EEEEE5firstB7v160006Ev, symObjAddr: 0x7550, symBinAddr: 0x10000DC40, symSize: 0x20 }
  - { offsetInCU: 0x147DA, offset: 0x274EC, size: 0x8, addend: 0x0, symName: __ZNSt3__122__compressed_pair_elemIPNS_11__hash_nodeINS_17__hash_value_typeINS_12basic_stringIcNS_11char_traitsIcEENS_9allocatorIcEEEEiEEPvEELi0ELb0EE5__getB7v160006Ev, symObjAddr: 0x7570, symBinAddr: 0x10000DC60, symSize: 0x10 }
  - { offsetInCU: 0x147FF, offset: 0x27511, size: 0x8, addend: 0x0, symName: __ZNSt3__110unique_ptrINS_11__hash_nodeINS_17__hash_value_typeINS_12basic_stringIcNS_11char_traitsIcEENS_9allocatorIcEEEEiEEPvEENS_22__hash_node_destructorINS6_ISB_EEEEED2B7v160006Ev, symObjAddr: 0x7580, symBinAddr: 0x10000DC70, symSize: 0x20 }
  - { offsetInCU: 0x14828, offset: 0x2753A, size: 0x8, addend: 0x0, symName: __ZNSt3__110unique_ptrINS_11__hash_nodeINS_17__hash_value_typeINS_12basic_stringIcNS_11char_traitsIcEENS_9allocatorIcEEEEiEEPvEENS_22__hash_node_destructorINS6_ISB_EEEEE5resetB7v160006EPSB_, symObjAddr: 0x75A0, symBinAddr: 0x10000DC90, symSize: 0x70 }
  - { offsetInCU: 0x1486B, offset: 0x2757D, size: 0x8, addend: 0x0, symName: __ZNSt3__122__hash_node_destructorINS_9allocatorINS_11__hash_nodeINS_17__hash_value_typeINS_12basic_stringIcNS_11char_traitsIcEENS1_IcEEEEiEEPvEEEEEclB7v160006EPSB_, symObjAddr: 0x7610, symBinAddr: 0x10000DD00, symSize: 0x80 }
  - { offsetInCU: 0x14922, offset: 0x27634, size: 0x8, addend: 0x0, symName: __ZNKSt3__113basic_istreamIcNS_11char_traitsIcEEE6sentrycvbB7v160006Ev, symObjAddr: 0x7F90, symBinAddr: 0x10000DD80, symSize: 0x20 }
  - { offsetInCU: 0x14947, offset: 0x27659, size: 0x8, addend: 0x0, symName: __ZNSt3__112basic_stringIcNS_11char_traitsIcEENS_9allocatorIcEEE5clearB7v160006Ev, symObjAddr: 0x7FB0, symBinAddr: 0x10000DDA0, symSize: 0xA0 }
  - { offsetInCU: 0x1496D, offset: 0x2767F, size: 0x8, addend: 0x0, symName: __ZNKSt3__112basic_stringIcNS_11char_traitsIcEENS_9allocatorIcEEE8max_sizeB7v160006Ev, symObjAddr: 0x8050, symBinAddr: 0x10000DE40, symSize: 0xA0 }
  - { offsetInCU: 0x149BE, offset: 0x276D0, size: 0x8, addend: 0x0, symName: __ZNSt3__115basic_streambufIcNS_11char_traitsIcEEE5sgetcB7v160006Ev, symObjAddr: 0x80F0, symBinAddr: 0x10000DEE0, symSize: 0x50 }
  - { offsetInCU: 0x149E3, offset: 0x276F5, size: 0x8, addend: 0x0, symName: __ZNSt3__111char_traitsIcE12to_char_typeEi, symObjAddr: 0x8140, symBinAddr: 0x10000DF30, symSize: 0x10 }
  - { offsetInCU: 0x14A06, offset: 0x27718, size: 0x8, addend: 0x0, symName: __ZNKSt3__15ctypeIcE2isB7v160006Ejc, symObjAddr: 0x8150, symBinAddr: 0x10000DF40, symSize: 0x70 }
  - { offsetInCU: 0x14A49, offset: 0x2775B, size: 0x8, addend: 0x0, symName: __ZNSt3__115basic_streambufIcNS_11char_traitsIcEEE6sbumpcB7v160006Ev, symObjAddr: 0x81C0, symBinAddr: 0x10000DFB0, symSize: 0x60 }
  - { offsetInCU: 0x14A6E, offset: 0x27780, size: 0x8, addend: 0x0, symName: __ZNSt3__18ios_base18__setstate_nothrowB7v160006Ej, symObjAddr: 0x8220, symBinAddr: 0x10000E010, symSize: 0x50 }
  - { offsetInCU: 0x14AA2, offset: 0x277B4, size: 0x8, addend: 0x0, symName: __ZNKSt3__19basic_iosIcNS_11char_traitsIcEEE10exceptionsB7v160006Ev, symObjAddr: 0x8270, symBinAddr: 0x10000E060, symSize: 0x20 }
  - { offsetInCU: 0x14AC7, offset: 0x277D9, size: 0x8, addend: 0x0, symName: __ZNSt3__111char_traitsIcE6assignERcRKc, symObjAddr: 0x82A0, symBinAddr: 0x10000E090, symSize: 0x20 }
  - { offsetInCU: 0x14AF8, offset: 0x2780A, size: 0x8, addend: 0x0, symName: __ZNSt3__112basic_stringIcNS_11char_traitsIcEENS_9allocatorIcEEE15__set_long_sizeB7v160006Em, symObjAddr: 0x82C0, symBinAddr: 0x10000E0B0, symSize: 0x30 }
  - { offsetInCU: 0x14B2C, offset: 0x2783E, size: 0x8, addend: 0x0, symName: __ZNSt3__112basic_stringIcNS_11char_traitsIcEENS_9allocatorIcEEE16__set_short_sizeB7v160006Em, symObjAddr: 0x82F0, symBinAddr: 0x10000E0E0, symSize: 0x50 }
  - { offsetInCU: 0x14B6A, offset: 0x2787C, size: 0x8, addend: 0x0, symName: __ZNSt3__116allocator_traitsINS_9allocatorIcEEE8max_sizeB7v160006IS2_vEEmRKS2_, symObjAddr: 0x8340, symBinAddr: 0x10000E130, symSize: 0x20 }
  - { offsetInCU: 0x14B98, offset: 0x278AA, size: 0x8, addend: 0x0, symName: __ZNKSt3__112basic_stringIcNS_11char_traitsIcEENS_9allocatorIcEEE7__allocB7v160006Ev, symObjAddr: 0x8360, symBinAddr: 0x10000E150, symSize: 0x20 }
  - { offsetInCU: 0x14BBD, offset: 0x278CF, size: 0x8, addend: 0x0, symName: __ZNSt3__114numeric_limitsImE3maxB7v160006Ev, symObjAddr: 0x8380, symBinAddr: 0x10000E170, symSize: 0x10 }
  - { offsetInCU: 0x14BD1, offset: 0x278E3, size: 0x8, addend: 0x0, symName: __ZNKSt3__19allocatorIcE8max_sizeB7v160006Ev, symObjAddr: 0x8390, symBinAddr: 0x10000E180, symSize: 0x20 }
  - { offsetInCU: 0x14BF6, offset: 0x27908, size: 0x8, addend: 0x0, symName: __ZNKSt3__117__compressed_pairINS_12basic_stringIcNS_11char_traitsIcEENS_9allocatorIcEEE5__repES5_E6secondB7v160006Ev, symObjAddr: 0x83B0, symBinAddr: 0x10000E1A0, symSize: 0x20 }
  - { offsetInCU: 0x14C1B, offset: 0x2792D, size: 0x8, addend: 0x0, symName: __ZNKSt3__122__compressed_pair_elemINS_9allocatorIcEELi1ELb1EE5__getB7v160006Ev, symObjAddr: 0x83D0, symBinAddr: 0x10000E1C0, symSize: 0x10 }
  - { offsetInCU: 0x14C40, offset: 0x27952, size: 0x8, addend: 0x0, symName: __ZNSt3__123__libcpp_numeric_limitsImLb1EE3maxB7v160006Ev, symObjAddr: 0x83E0, symBinAddr: 0x10000E1D0, symSize: 0x10 }
  - { offsetInCU: 0x14C54, offset: 0x27966, size: 0x8, addend: 0x0, symName: __ZNSt3__111char_traitsIcE11to_int_typeEc, symObjAddr: 0x83F0, symBinAddr: 0x10000E1E0, symSize: 0x10 }
  - { offsetInCU: 0x14C76, offset: 0x27988, size: 0x8, addend: 0x0, symName: __Z7isasciii, symObjAddr: 0x8400, symBinAddr: 0x10000E1F0, symSize: 0x20 }
  - { offsetInCU: 0x14CA3, offset: 0x279B5, size: 0x8, addend: 0x0, symName: __ZNKSt3__18ios_base10exceptionsB7v160006Ev, symObjAddr: 0x8420, symBinAddr: 0x10000E210, symSize: 0x20 }
  - { offsetInCU: 0x14CC9, offset: 0x279DB, size: 0x8, addend: 0x0, symName: __ZNSt3__16vectorI4CardNS_9allocatorIS1_EEE6assignIPKS1_Li0EEEvT_S8_, symObjAddr: 0x8440, symBinAddr: 0x10000E230, symSize: 0x160 }
  - { offsetInCU: 0x14D66, offset: 0x27A78, size: 0x8, addend: 0x0, symName: __ZNKSt16initializer_listI4CardE5beginB7v160006Ev, symObjAddr: 0x85A0, symBinAddr: 0x10000E390, symSize: 0x20 }
  - { offsetInCU: 0x14D8B, offset: 0x27A9D, size: 0x8, addend: 0x0, symName: __ZNKSt16initializer_listI4CardE3endB7v160006Ev, symObjAddr: 0x85C0, symBinAddr: 0x10000E3B0, symSize: 0x20 }
  - { offsetInCU: 0x14DB0, offset: 0x27AC2, size: 0x8, addend: 0x0, symName: __ZNSt3__16vectorI4CardNS_9allocatorIS1_EEE18__construct_at_endIPKS1_Li0EEEvT_S8_m, symObjAddr: 0x86A0, symBinAddr: 0x10000E490, symSize: 0x90 }
  - { offsetInCU: 0x14E21, offset: 0x27B33, size: 0x8, addend: 0x0, symName: __ZNSt3__16vectorI4CardNS_9allocatorIS1_EEE17__destruct_at_endB7v160006EPS1_, symObjAddr: 0x8730, symBinAddr: 0x10000E520, symSize: 0x60 }
  - { offsetInCU: 0x14E64, offset: 0x27B76, size: 0x8, addend: 0x0, symName: __ZNSt3__16vectorI4CardNS_9allocatorIS1_EEE13__vdeallocateEv, symObjAddr: 0x8790, symBinAddr: 0x10000E580, symSize: 0x80 }
  - { offsetInCU: 0x14E8A, offset: 0x27B9C, size: 0x8, addend: 0x0, symName: __ZNSt3__16vectorI4CardNS_9allocatorIS1_EEE11__vallocateB7v160006Em, symObjAddr: 0x8810, symBinAddr: 0x10000E600, symSize: 0xA0 }
  - { offsetInCU: 0x14ECD, offset: 0x27BDF, size: 0x8, addend: 0x0, symName: __ZNKSt3__16vectorI4CardNS_9allocatorIS1_EEE11__recommendB7v160006Em, symObjAddr: 0x88B0, symBinAddr: 0x10000E6A0, symSize: 0xA0 }
  - { offsetInCU: 0x14F43, offset: 0x27C55, size: 0x8, addend: 0x0, symName: __ZNKSt3__111__copy_loopINS_17_ClassicAlgPolicyEEclB7v160006IPK4CardS6_PS4_EENS_4pairIT_T1_EES9_T0_SA_, symObjAddr: 0x8B50, symBinAddr: 0x10000E930, symSize: 0x80 }
  - { offsetInCU: 0x14FCB, offset: 0x27CDD, size: 0x8, addend: 0x0, symName: __ZNSt3__14pairIPK4CardS3_EC1B7v160006IS3_S3_LPv0EEEOT_OT0_, symObjAddr: 0x8CE0, symBinAddr: 0x10000EAC0, symSize: 0x30 }
  - { offsetInCU: 0x15028, offset: 0x27D3A, size: 0x8, addend: 0x0, symName: __ZNSt3__14pairIPK4CardS3_EC2B7v160006IS3_S3_LPv0EEEOT_OT0_, symObjAddr: 0x8D10, symBinAddr: 0x10000EAF0, symSize: 0x30 }
  - { offsetInCU: 0x15085, offset: 0x27D97, size: 0x8, addend: 0x0, symName: __ZNSt3__118__unwrap_iter_implIPK4CardLb1EE8__unwrapB7v160006ES3_, symObjAddr: 0x8D40, symBinAddr: 0x10000EB20, symSize: 0x20 }
  - { offsetInCU: 0x150A8, offset: 0x27DBA, size: 0x8, addend: 0x0, symName: __ZN4CardaSERKS_, symObjAddr: 0x8D70, symBinAddr: 0x10000EB50, symSize: 0xB0 }
  - { offsetInCU: 0x150D8, offset: 0x27DEA, size: 0x8, addend: 0x0, symName: __ZNSt3__16vectorINS_12basic_stringIcNS_11char_traitsIcEENS_9allocatorIcEEEENS4_IS6_EEEaSB7v160006ERKS8_, symObjAddr: 0x8E20, symBinAddr: 0x10000EC00, symSize: 0x60 }
  - { offsetInCU: 0x1510D, offset: 0x27E1F, size: 0x8, addend: 0x0, symName: __ZNSt3__16vectorINS_12basic_stringIcNS_11char_traitsIcEENS_9allocatorIcEEEENS4_IS6_EEE19__copy_assign_allocB7v160006ERKS8_, symObjAddr: 0x8E80, symBinAddr: 0x10000EC60, symSize: 0x30 }
  - { offsetInCU: 0x15141, offset: 0x27E53, size: 0x8, addend: 0x0, symName: __ZNSt3__16vectorINS_12basic_stringIcNS_11char_traitsIcEENS_9allocatorIcEEEENS4_IS6_EEE6assignIPS6_Li0EEEvT_SB_, symObjAddr: 0x8EB0, symBinAddr: 0x10000EC90, symSize: 0x160 }
  - { offsetInCU: 0x151DE, offset: 0x27EF0, size: 0x8, addend: 0x0, symName: __ZNSt3__16vectorINS_12basic_stringIcNS_11char_traitsIcEENS_9allocatorIcEEEENS4_IS6_EEE19__copy_assign_allocB7v160006ERKS8_NS_17integral_constantIbLb0EEE, symObjAddr: 0x9010, symBinAddr: 0x10000EDF0, symSize: 0x10 }
  - { offsetInCU: 0x15219, offset: 0x27F2B, size: 0x8, addend: 0x0, symName: __ZNSt3__16vectorINS_12basic_stringIcNS_11char_traitsIcEENS_9allocatorIcEEEENS4_IS6_EEE17__destruct_at_endB7v160006EPS6_, symObjAddr: 0x90E0, symBinAddr: 0x10000EEC0, symSize: 0x60 }
  - { offsetInCU: 0x1525C, offset: 0x27F6E, size: 0x8, addend: 0x0, symName: __ZNSt3__16vectorINS_12basic_stringIcNS_11char_traitsIcEENS_9allocatorIcEEEENS4_IS6_EEE13__vdeallocateEv, symObjAddr: 0x9140, symBinAddr: 0x10000EF20, symSize: 0x80 }
  - { offsetInCU: 0x15282, offset: 0x27F94, size: 0x8, addend: 0x0, symName: __ZNKSt3__16vectorINS_12basic_stringIcNS_11char_traitsIcEENS_9allocatorIcEEEENS4_IS6_EEE11__recommendB7v160006Em, symObjAddr: 0x91C0, symBinAddr: 0x10000EFA0, symSize: 0xA0 }
  - { offsetInCU: 0x152EE, offset: 0x28000, size: 0x8, addend: 0x0, symName: __ZNKSt3__111__copy_loopINS_17_ClassicAlgPolicyEEclB7v160006IPNS_12basic_stringIcNS_11char_traitsIcEENS_9allocatorIcEEEESA_SA_EENS_4pairIT_T1_EESC_T0_SD_, symObjAddr: 0x9440, symBinAddr: 0x10000F220, symSize: 0x80 }
  - { offsetInCU: 0x15358, offset: 0x2806A, size: 0x8, addend: 0x0, symName: __ZNSt3__118__unwrap_iter_implIPNS_12basic_stringIcNS_11char_traitsIcEENS_9allocatorIcEEEELb1EE8__unwrapB7v160006ES7_, symObjAddr: 0x9580, symBinAddr: 0x10000F360, symSize: 0x20 }
  - { offsetInCU: 0x15380, offset: 0x28092, size: 0x8, addend: 0x0, symName: __ZNSt3__14pairIPNS_12basic_stringIcNS_11char_traitsIcEENS_9allocatorIcEEEES7_EC1B7v160006IS7_S7_LPv0EEEOT_OT0_, symObjAddr: 0x95A0, symBinAddr: 0x10000F380, symSize: 0x30 }
  - { offsetInCU: 0x153DD, offset: 0x280EF, size: 0x8, addend: 0x0, symName: __ZNSt3__14pairIPNS_12basic_stringIcNS_11char_traitsIcEENS_9allocatorIcEEEES7_EC2B7v160006IS7_S7_LPv0EEEOT_OT0_, symObjAddr: 0x95D0, symBinAddr: 0x10000F3B0, symSize: 0x30 }
  - { offsetInCU: 0x1543A, offset: 0x2814C, size: 0x8, addend: 0x0, symName: __ZNSt3__118__unwrap_iter_implIPNS_12basic_stringIcNS_11char_traitsIcEENS_9allocatorIcEEEELb1EE8__rewrapB7v160006ES7_S7_, symObjAddr: 0x9600, symBinAddr: 0x10000F3E0, symSize: 0x60 }
  - { offsetInCU: 0x1546B, offset: 0x2817D, size: 0x8, addend: 0x0, symName: __ZNSt3__16vectorINS_12basic_stringIcNS_11char_traitsIcEENS_9allocatorIcEEEENS4_IS6_EEE27__invalidate_iterators_pastB7v160006EPS6_, symObjAddr: 0x9660, symBinAddr: 0x10000F440, symSize: 0x10 }
  - { offsetInCU: 0x154A0, offset: 0x281B2, size: 0x8, addend: 0x0, symName: __ZNKSt3__16vectorINS_12basic_stringIcNS_11char_traitsIcEENS_9allocatorIcEEEENS4_IS6_EEE17__annotate_shrinkB7v160006Em, symObjAddr: 0x9670, symBinAddr: 0x10000F450, symSize: 0xA0 }
  - { offsetInCU: 0x154D4, offset: 0x281E6, size: 0x8, addend: 0x0, symName: __ZNSt3__16vectorINS_12basic_stringIcNS_11char_traitsIcEENS_9allocatorIcEEEENS4_IS6_EEE5clearB7v160006Ev, symObjAddr: 0x9710, symBinAddr: 0x10000F4F0, symSize: 0x50 }
  - { offsetInCU: 0x15508, offset: 0x2821A, size: 0x8, addend: 0x0, symName: __ZNSt3__118__unwrap_iter_implIP4CardLb1EE8__unwrapB7v160006ES2_, symObjAddr: 0x9760, symBinAddr: 0x10000F540, symSize: 0x20 }
  - { offsetInCU: 0x15530, offset: 0x28242, size: 0x8, addend: 0x0, symName: __ZNSt3__14pairIPK4CardPS1_EC1B7v160006IS3_S4_LPv0EEEOT_OT0_, symObjAddr: 0x9780, symBinAddr: 0x10000F560, symSize: 0x30 }
  - { offsetInCU: 0x1558D, offset: 0x2829F, size: 0x8, addend: 0x0, symName: __ZNSt3__14pairIPK4CardPS1_EC2B7v160006IS3_S4_LPv0EEEOT_OT0_, symObjAddr: 0x97B0, symBinAddr: 0x10000F590, symSize: 0x30 }
  - { offsetInCU: 0x155EA, offset: 0x282FC, size: 0x8, addend: 0x0, symName: __ZNSt3__118__unwrap_iter_implIPK4CardLb1EE8__rewrapB7v160006ES3_S3_, symObjAddr: 0x9820, symBinAddr: 0x10000F600, symSize: 0x60 }
  - { offsetInCU: 0x1561B, offset: 0x2832D, size: 0x8, addend: 0x0, symName: __ZNSt3__118__unwrap_iter_implIP4CardLb1EE8__rewrapB7v160006ES2_S2_, symObjAddr: 0x9880, symBinAddr: 0x10000F660, symSize: 0x60 }
  - { offsetInCU: 0x15665, offset: 0x28377, size: 0x8, addend: 0x0, symName: __ZNSt3__16vectorI4CardNS_9allocatorIS1_EEE21_ConstructTransactionC1B7v160006ERS4_m, symObjAddr: 0x98E0, symBinAddr: 0x10000F6C0, symSize: 0x30 }
  - { offsetInCU: 0x156AC, offset: 0x283BE, size: 0x8, addend: 0x0, symName: __ZNSt3__16vectorI4CardNS_9allocatorIS1_EEE21_ConstructTransactionD1B7v160006Ev, symObjAddr: 0x9A10, symBinAddr: 0x10000F7F0, symSize: 0x20 }
  - { offsetInCU: 0x156D5, offset: 0x283E7, size: 0x8, addend: 0x0, symName: __ZNSt3__16vectorI4CardNS_9allocatorIS1_EEE21_ConstructTransactionC2B7v160006ERS4_m, symObjAddr: 0x9A30, symBinAddr: 0x10000F810, symSize: 0x40 }
  - { offsetInCU: 0x1571C, offset: 0x2842E, size: 0x8, addend: 0x0, symName: __ZNSt3__129_AllocatorDestroyRangeReverseINS_9allocatorI4CardEEPS2_EC1B7v160006ERS3_RS4_S7_, symObjAddr: 0x9AD0, symBinAddr: 0x10000F8B0, symSize: 0x40 }
  - { offsetInCU: 0x15772, offset: 0x28484, size: 0x8, addend: 0x0, symName: __ZNSt3__116allocator_traitsINS_9allocatorI4CardEEE9constructB7v160006IS2_JRKS2_EvEEvRS3_PT_DpOT0_, symObjAddr: 0x9B10, symBinAddr: 0x10000F8F0, symSize: 0x30 }
  - { offsetInCU: 0x157C9, offset: 0x284DB, size: 0x8, addend: 0x0, symName: __ZNSt3__128__exception_guard_exceptionsINS_29_AllocatorDestroyRangeReverseINS_9allocatorI4CardEEPS3_EEE10__completeB7v160006Ev, symObjAddr: 0x9B40, symBinAddr: 0x10000F920, symSize: 0x20 }
  - { offsetInCU: 0x157EE, offset: 0x28500, size: 0x8, addend: 0x0, symName: __ZNSt3__128__exception_guard_exceptionsINS_29_AllocatorDestroyRangeReverseINS_9allocatorI4CardEEPS3_EEED1B7v160006Ev, symObjAddr: 0x9B60, symBinAddr: 0x10000F940, symSize: 0x20 }
  - { offsetInCU: 0x15817, offset: 0x28529, size: 0x8, addend: 0x0, symName: __ZNSt3__128__exception_guard_exceptionsINS_29_AllocatorDestroyRangeReverseINS_9allocatorI4CardEEPS3_EEEC1B7v160006ES6_, symObjAddr: 0x9B80, symBinAddr: 0x10000F960, symSize: 0x40 }
  - { offsetInCU: 0x1584E, offset: 0x28560, size: 0x8, addend: 0x0, symName: __ZNSt3__128__exception_guard_exceptionsINS_29_AllocatorDestroyRangeReverseINS_9allocatorI4CardEEPS3_EEEC2B7v160006ES6_, symObjAddr: 0x9BC0, symBinAddr: 0x10000F9A0, symSize: 0x30 }
  - { offsetInCU: 0x15885, offset: 0x28597, size: 0x8, addend: 0x0, symName: __ZNSt3__129_AllocatorDestroyRangeReverseINS_9allocatorI4CardEEPS2_EC2B7v160006ERS3_RS4_S7_, symObjAddr: 0x9BF0, symBinAddr: 0x10000F9D0, symSize: 0x40 }
  - { offsetInCU: 0x158DB, offset: 0x285ED, size: 0x8, addend: 0x0, symName: __ZNSt3__19allocatorI4CardE9constructB7v160006IS1_JRKS1_EEEvPT_DpOT0_, symObjAddr: 0x9C30, symBinAddr: 0x10000FA10, symSize: 0x30 }
  - { offsetInCU: 0x15930, offset: 0x28642, size: 0x8, addend: 0x0, symName: __ZNSt3__128__exception_guard_exceptionsINS_29_AllocatorDestroyRangeReverseINS_9allocatorI4CardEEPS3_EEED2B7v160006Ev, symObjAddr: 0x9C60, symBinAddr: 0x10000FA40, symSize: 0x40 }
  - { offsetInCU: 0x15959, offset: 0x2866B, size: 0x8, addend: 0x0, symName: __ZNKSt3__129_AllocatorDestroyRangeReverseINS_9allocatorI4CardEEPS2_EclB7v160006Ev, symObjAddr: 0x9CA0, symBinAddr: 0x10000FA80, symSize: 0x60 }
  - { offsetInCU: 0x1597E, offset: 0x28690, size: 0x8, addend: 0x0, symName: __ZNSt3__116reverse_iteratorIP4CardEC1B7v160006ES2_, symObjAddr: 0x9D70, symBinAddr: 0x10000FB50, symSize: 0x30 }
  - { offsetInCU: 0x159B5, offset: 0x286C7, size: 0x8, addend: 0x0, symName: __ZNSt3__116reverse_iteratorIP4CardEppB7v160006Ev, symObjAddr: 0x9E00, symBinAddr: 0x10000FBE0, symSize: 0x20 }
  - { offsetInCU: 0x159DA, offset: 0x286EC, size: 0x8, addend: 0x0, symName: __ZNKSt3__116reverse_iteratorIP4CardE4baseB7v160006Ev, symObjAddr: 0x9E20, symBinAddr: 0x10000FC00, symSize: 0x20 }
  - { offsetInCU: 0x15A04, offset: 0x28716, size: 0x8, addend: 0x0, symName: __ZNSt3__119__to_address_helperINS_16reverse_iteratorIP4CardEEvE6__callB7v160006ERKS4_, symObjAddr: 0x9E40, symBinAddr: 0x10000FC20, symSize: 0x40 }
  - { offsetInCU: 0x15A27, offset: 0x28739, size: 0x8, addend: 0x0, symName: __ZNKSt3__116reverse_iteratorIP4CardEptB7v160006Ev, symObjAddr: 0x9E80, symBinAddr: 0x10000FC60, symSize: 0x20 }
  - { offsetInCU: 0x15A4C, offset: 0x2875E, size: 0x8, addend: 0x0, symName: __ZNKSt3__116reverse_iteratorIP4CardEdeB7v160006Ev, symObjAddr: 0x9EA0, symBinAddr: 0x10000FC80, symSize: 0x30 }
  - { offsetInCU: 0x15A7F, offset: 0x28791, size: 0x8, addend: 0x0, symName: __ZNSt3__116reverse_iteratorIP4CardEC2B7v160006ES2_, symObjAddr: 0x9ED0, symBinAddr: 0x10000FCB0, symSize: 0x30 }
  - { offsetInCU: 0x15AB6, offset: 0x287C8, size: 0x8, addend: 0x0, symName: __ZNSt3__16vectorI4CardNS_9allocatorIS1_EEE21_ConstructTransactionD2B7v160006Ev, symObjAddr: 0x9F00, symBinAddr: 0x10000FCE0, symSize: 0x20 }
  - { offsetInCU: 0x15ADF, offset: 0x287F1, size: 0x8, addend: 0x0, symName: __ZNSt3__16vectorI4CardNS_9allocatorIS1_EEE27__invalidate_iterators_pastB7v160006EPS1_, symObjAddr: 0x9F20, symBinAddr: 0x10000FD00, symSize: 0x10 }
  - { offsetInCU: 0x15B14, offset: 0x28826, size: 0x8, addend: 0x0, symName: __ZNKSt3__16vectorI4CardNS_9allocatorIS1_EEE17__annotate_shrinkB7v160006Em, symObjAddr: 0x9F30, symBinAddr: 0x10000FD10, symSize: 0xB0 }
  - { offsetInCU: 0x15B48, offset: 0x2885A, size: 0x8, addend: 0x0, symName: __ZNSt3__16vectorI4CardNS_9allocatorIS1_EEE9__end_capB7v160006Ev, symObjAddr: 0x9FE0, symBinAddr: 0x10000FDC0, symSize: 0x20 }
  - { offsetInCU: 0x15B6D, offset: 0x2887F, size: 0x8, addend: 0x0, symName: __ZNSt3__117__compressed_pairIP4CardNS_9allocatorIS1_EEE5firstB7v160006Ev, symObjAddr: 0xA000, symBinAddr: 0x10000FDE0, symSize: 0x20 }
  - { offsetInCU: 0x15B92, offset: 0x288A4, size: 0x8, addend: 0x0, symName: __ZNSt3__122__compressed_pair_elemIP4CardLi0ELb0EE5__getB7v160006Ev, symObjAddr: 0xA020, symBinAddr: 0x10000FE00, symSize: 0x10 }
  - { offsetInCU: 0x15BB7, offset: 0x288C9, size: 0x8, addend: 0x0, symName: __ZNKSt3__16vectorI4CardNS_9allocatorIS1_EEE8max_sizeEv, symObjAddr: 0xA030, symBinAddr: 0x10000FE10, symSize: 0x60 }
  - { offsetInCU: 0x15BDD, offset: 0x288EF, size: 0x8, addend: 0x0, symName: __ZNKSt3__16vectorI4CardNS_9allocatorIS1_EEE20__throw_length_errorB7v160006Ev, symObjAddr: 0xA090, symBinAddr: 0x10000FE70, symSize: 0x20 }
  - { offsetInCU: 0x15C02, offset: 0x28914, size: 0x8, addend: 0x0, symName: __ZNKSt3__16vectorI4CardNS_9allocatorIS1_EEE14__annotate_newB7v160006Em, symObjAddr: 0xA0F0, symBinAddr: 0x10000FED0, symSize: 0xB0 }
  - { offsetInCU: 0x15C40, offset: 0x28952, size: 0x8, addend: 0x0, symName: __ZNSt3__116allocator_traitsINS_9allocatorI4CardEEE8max_sizeB7v160006IS3_vEEmRKS3_, symObjAddr: 0xA1A0, symBinAddr: 0x10000FF80, symSize: 0x20 }
  - { offsetInCU: 0x15C6E, offset: 0x28980, size: 0x8, addend: 0x0, symName: __ZNKSt3__16vectorI4CardNS_9allocatorIS1_EEE7__allocB7v160006Ev, symObjAddr: 0xA1C0, symBinAddr: 0x10000FFA0, symSize: 0x20 }
  - { offsetInCU: 0x15C93, offset: 0x289A5, size: 0x8, addend: 0x0, symName: __ZNKSt3__19allocatorI4CardE8max_sizeB7v160006Ev, symObjAddr: 0xA1E0, symBinAddr: 0x10000FFC0, symSize: 0x20 }
  - { offsetInCU: 0x15CB8, offset: 0x289CA, size: 0x8, addend: 0x0, symName: __ZNKSt3__117__compressed_pairIP4CardNS_9allocatorIS1_EEE6secondB7v160006Ev, symObjAddr: 0xA200, symBinAddr: 0x10000FFE0, symSize: 0x20 }
  - { offsetInCU: 0x15CDD, offset: 0x289EF, size: 0x8, addend: 0x0, symName: __ZNKSt3__122__compressed_pair_elemINS_9allocatorI4CardEELi1ELb1EE5__getB7v160006Ev, symObjAddr: 0xA220, symBinAddr: 0x100010000, symSize: 0x10 }
  - { offsetInCU: 0x15D02, offset: 0x28A14, size: 0x8, addend: 0x0, symName: __ZNSt3__19allocatorI4CardE8allocateB7v160006Em, symObjAddr: 0xA230, symBinAddr: 0x100010010, symSize: 0x50 }
  - { offsetInCU: 0x15D35, offset: 0x28A47, size: 0x8, addend: 0x0, symName: __ZNSt3__16vectorI4CardNS_9allocatorIS1_EEE22__construct_one_at_endB7v160006IJRKS1_EEEvDpOT_, symObjAddr: 0xA280, symBinAddr: 0x100010060, symSize: 0x90 }
  - { offsetInCU: 0x15D83, offset: 0x28A95, size: 0x8, addend: 0x0, symName: __ZNSt3__16vectorI4CardNS_9allocatorIS1_EEE21__push_back_slow_pathIRKS1_EEvOT_, symObjAddr: 0xA310, symBinAddr: 0x1000100F0, symSize: 0xD0 }
  - { offsetInCU: 0x15DDF, offset: 0x28AF1, size: 0x8, addend: 0x0, symName: __ZNSt3__114__split_bufferI4CardRNS_9allocatorIS1_EEEC1EmmS4_, symObjAddr: 0xA3E0, symBinAddr: 0x1000101C0, symSize: 0x40 }
  - { offsetInCU: 0x15E34, offset: 0x28B46, size: 0x8, addend: 0x0, symName: __ZNSt3__114__split_bufferI4CardRNS_9allocatorIS1_EEED1Ev, symObjAddr: 0xA550, symBinAddr: 0x100010330, symSize: 0x20 }
  - { offsetInCU: 0x15E5F, offset: 0x28B71, size: 0x8, addend: 0x0, symName: __ZNSt3__114__split_bufferI4CardRNS_9allocatorIS1_EEEC2EmmS4_, symObjAddr: 0xA570, symBinAddr: 0x100010350, symSize: 0xD0 }
  - { offsetInCU: 0x15ED1, offset: 0x28BE3, size: 0x8, addend: 0x0, symName: __ZNSt3__117__compressed_pairIP4CardRNS_9allocatorIS1_EEEC1B7v160006IDnS5_EEOT_OT0_, symObjAddr: 0xA640, symBinAddr: 0x100010420, symSize: 0x30 }
  - { offsetInCU: 0x15F28, offset: 0x28C3A, size: 0x8, addend: 0x0, symName: __ZNSt3__114__split_bufferI4CardRNS_9allocatorIS1_EEE7__allocB7v160006Ev, symObjAddr: 0xA670, symBinAddr: 0x100010450, symSize: 0x20 }
  - { offsetInCU: 0x15F4D, offset: 0x28C5F, size: 0x8, addend: 0x0, symName: __ZNSt3__114__split_bufferI4CardRNS_9allocatorIS1_EEE9__end_capB7v160006Ev, symObjAddr: 0xA690, symBinAddr: 0x100010470, symSize: 0x20 }
  - { offsetInCU: 0x15F72, offset: 0x28C84, size: 0x8, addend: 0x0, symName: __ZNSt3__117__compressed_pairIP4CardRNS_9allocatorIS1_EEEC2B7v160006IDnS5_EEOT_OT0_, symObjAddr: 0xA6B0, symBinAddr: 0x100010490, symSize: 0x40 }
  - { offsetInCU: 0x15FC9, offset: 0x28CDB, size: 0x8, addend: 0x0, symName: __ZNSt3__122__compressed_pair_elemIRNS_9allocatorI4CardEELi1ELb0EEC2B7v160006IS4_vEEOT_, symObjAddr: 0xA6F0, symBinAddr: 0x1000104D0, symSize: 0x20 }
  - { offsetInCU: 0x1600A, offset: 0x28D1C, size: 0x8, addend: 0x0, symName: __ZNSt3__117__compressed_pairIP4CardRNS_9allocatorIS1_EEE6secondB7v160006Ev, symObjAddr: 0xA710, symBinAddr: 0x1000104F0, symSize: 0x20 }
  - { offsetInCU: 0x1602F, offset: 0x28D41, size: 0x8, addend: 0x0, symName: __ZNSt3__122__compressed_pair_elemIRNS_9allocatorI4CardEELi1ELb0EE5__getB7v160006Ev, symObjAddr: 0xA730, symBinAddr: 0x100010510, symSize: 0x20 }
  - { offsetInCU: 0x16054, offset: 0x28D66, size: 0x8, addend: 0x0, symName: __ZNSt3__117__compressed_pairIP4CardRNS_9allocatorIS1_EEE5firstB7v160006Ev, symObjAddr: 0xA750, symBinAddr: 0x100010530, symSize: 0x20 }
  - { offsetInCU: 0x16079, offset: 0x28D8B, size: 0x8, addend: 0x0, symName: __ZNSt3__129_AllocatorDestroyRangeReverseINS_9allocatorI4CardEENS_16reverse_iteratorIPS2_EEEC1B7v160006ERS3_RS6_S9_, symObjAddr: 0xA980, symBinAddr: 0x100010760, symSize: 0x40 }
  - { offsetInCU: 0x160D4, offset: 0x28DE6, size: 0x8, addend: 0x0, symName: __ZNSt3__116allocator_traitsINS_9allocatorI4CardEEE9constructB7v160006IS2_JS2_EvEEvRS3_PT_DpOT0_, symObjAddr: 0xA9C0, symBinAddr: 0x1000107A0, symSize: 0x30 }
  - { offsetInCU: 0x1612B, offset: 0x28E3D, size: 0x8, addend: 0x0, symName: __ZNSt3__128__exception_guard_exceptionsINS_29_AllocatorDestroyRangeReverseINS_9allocatorI4CardEENS_16reverse_iteratorIPS3_EEEEE10__completeB7v160006Ev, symObjAddr: 0xA9F0, symBinAddr: 0x1000107D0, symSize: 0x20 }
  - { offsetInCU: 0x16150, offset: 0x28E62, size: 0x8, addend: 0x0, symName: __ZNSt3__128__exception_guard_exceptionsINS_29_AllocatorDestroyRangeReverseINS_9allocatorI4CardEENS_16reverse_iteratorIPS3_EEEEED1B7v160006Ev, symObjAddr: 0xAA10, symBinAddr: 0x1000107F0, symSize: 0x20 }
  - { offsetInCU: 0x16179, offset: 0x28E8B, size: 0x8, addend: 0x0, symName: __ZNSt3__128__exception_guard_exceptionsINS_29_AllocatorDestroyRangeReverseINS_9allocatorI4CardEENS_16reverse_iteratorIPS3_EEEEEC1B7v160006ES8_, symObjAddr: 0xAA30, symBinAddr: 0x100010810, symSize: 0x40 }
  - { offsetInCU: 0x161B0, offset: 0x28EC2, size: 0x8, addend: 0x0, symName: __ZNSt3__128__exception_guard_exceptionsINS_29_AllocatorDestroyRangeReverseINS_9allocatorI4CardEENS_16reverse_iteratorIPS3_EEEEEC2B7v160006ES8_, symObjAddr: 0xAA70, symBinAddr: 0x100010850, symSize: 0x30 }
  - { offsetInCU: 0x161E7, offset: 0x28EF9, size: 0x8, addend: 0x0, symName: __ZNSt3__129_AllocatorDestroyRangeReverseINS_9allocatorI4CardEENS_16reverse_iteratorIPS2_EEEC2B7v160006ERS3_RS6_S9_, symObjAddr: 0xAAA0, symBinAddr: 0x100010880, symSize: 0x40 }
  - { offsetInCU: 0x1623D, offset: 0x28F4F, size: 0x8, addend: 0x0, symName: __ZNSt3__19allocatorI4CardE9constructB7v160006IS1_JS1_EEEvPT_DpOT0_, symObjAddr: 0xAAE0, symBinAddr: 0x1000108C0, symSize: 0x30 }
  - { offsetInCU: 0x16292, offset: 0x28FA4, size: 0x8, addend: 0x0, symName: __ZN4CardC1EOS_, symObjAddr: 0xAB10, symBinAddr: 0x1000108F0, symSize: 0x30 }
  - { offsetInCU: 0x162C6, offset: 0x28FD8, size: 0x8, addend: 0x0, symName: __ZN4CardC2EOS_, symObjAddr: 0xAB40, symBinAddr: 0x100010920, symSize: 0xB0 }
  - { offsetInCU: 0x162FA, offset: 0x2900C, size: 0x8, addend: 0x0, symName: __ZNSt3__16vectorINS_12basic_stringIcNS_11char_traitsIcEENS_9allocatorIcEEEENS4_IS6_EEEC1B7v160006EOS8_, symObjAddr: 0xABF0, symBinAddr: 0x1000109D0, symSize: 0x30 }
  - { offsetInCU: 0x16334, offset: 0x29046, size: 0x8, addend: 0x0, symName: __ZNSt3__16vectorINS_12basic_stringIcNS_11char_traitsIcEENS_9allocatorIcEEEENS4_IS6_EEEC2B7v160006EOS8_, symObjAddr: 0xAC50, symBinAddr: 0x100010A00, symSize: 0xE0 }
  - { offsetInCU: 0x1636E, offset: 0x29080, size: 0x8, addend: 0x0, symName: __ZNSt3__128__exception_guard_exceptionsINS_29_AllocatorDestroyRangeReverseINS_9allocatorI4CardEENS_16reverse_iteratorIPS3_EEEEED2B7v160006Ev, symObjAddr: 0xADD0, symBinAddr: 0x100010AF0, symSize: 0x40 }
  - { offsetInCU: 0x16397, offset: 0x290A9, size: 0x8, addend: 0x0, symName: __ZNKSt3__129_AllocatorDestroyRangeReverseINS_9allocatorI4CardEENS_16reverse_iteratorIPS2_EEEclB7v160006Ev, symObjAddr: 0xAE10, symBinAddr: 0x100010B30, symSize: 0xF0 }
  - { offsetInCU: 0x163BD, offset: 0x290CF, size: 0x8, addend: 0x0, symName: __ZNSt3__116reverse_iteratorINS0_IP4CardEEEC1B7v160006ES3_, symObjAddr: 0xAF70, symBinAddr: 0x100010C90, symSize: 0x30 }
  - { offsetInCU: 0x163F4, offset: 0x29106, size: 0x8, addend: 0x0, symName: __ZNSt3__116reverse_iteratorINS0_IP4CardEEEppB7v160006Ev, symObjAddr: 0xB010, symBinAddr: 0x100010D30, symSize: 0x30 }
  - { offsetInCU: 0x16419, offset: 0x2912B, size: 0x8, addend: 0x0, symName: __ZNKSt3__116reverse_iteratorINS0_IP4CardEEE4baseB7v160006Ev, symObjAddr: 0xB040, symBinAddr: 0x100010D60, symSize: 0x20 }
  - { offsetInCU: 0x16443, offset: 0x29155, size: 0x8, addend: 0x0, symName: __ZNSt3__119__to_address_helperINS_16reverse_iteratorINS1_IP4CardEEEEvE6__callB7v160006ERKS5_, symObjAddr: 0xB060, symBinAddr: 0x100010D80, symSize: 0x40 }
  - { offsetInCU: 0x16466, offset: 0x29178, size: 0x8, addend: 0x0, symName: __ZNKSt3__116reverse_iteratorINS0_IP4CardEEEptB7v160006Ev, symObjAddr: 0xB0A0, symBinAddr: 0x100010DC0, symSize: 0x20 }
  - { offsetInCU: 0x1648B, offset: 0x2919D, size: 0x8, addend: 0x0, symName: __ZNKSt3__116reverse_iteratorINS0_IP4CardEEEdeB7v160006Ev, symObjAddr: 0xB0C0, symBinAddr: 0x100010DE0, symSize: 0x40 }
  - { offsetInCU: 0x164BE, offset: 0x291D0, size: 0x8, addend: 0x0, symName: __ZNSt3__116reverse_iteratorIP4CardEmmB7v160006Ev, symObjAddr: 0xB100, symBinAddr: 0x100010E20, symSize: 0x20 }
  - { offsetInCU: 0x164E3, offset: 0x291F5, size: 0x8, addend: 0x0, symName: __ZNSt3__116reverse_iteratorINS0_IP4CardEEEC2B7v160006ES3_, symObjAddr: 0xB120, symBinAddr: 0x100010E40, symSize: 0x40 }
  - { offsetInCU: 0x1651A, offset: 0x2922C, size: 0x8, addend: 0x0, symName: __ZNSt3__114__split_bufferI4CardRNS_9allocatorIS1_EEED2Ev, symObjAddr: 0xB160, symBinAddr: 0x100010E80, symSize: 0x70 }
  - { offsetInCU: 0x16545, offset: 0x29257, size: 0x8, addend: 0x0, symName: __ZNSt3__114__split_bufferI4CardRNS_9allocatorIS1_EEE5clearB7v160006Ev, symObjAddr: 0xB1D0, symBinAddr: 0x100010EF0, symSize: 0x20 }
  - { offsetInCU: 0x1656A, offset: 0x2927C, size: 0x8, addend: 0x0, symName: __ZNKSt3__114__split_bufferI4CardRNS_9allocatorIS1_EEE8capacityB7v160006Ev, symObjAddr: 0xB1F0, symBinAddr: 0x100010F10, symSize: 0x40 }
  - { offsetInCU: 0x1658F, offset: 0x292A1, size: 0x8, addend: 0x0, symName: __ZNSt3__114__split_bufferI4CardRNS_9allocatorIS1_EEE17__destruct_at_endB7v160006EPS1_, symObjAddr: 0xB230, symBinAddr: 0x100010F50, symSize: 0x30 }
  - { offsetInCU: 0x165C2, offset: 0x292D4, size: 0x8, addend: 0x0, symName: __ZNSt3__114__split_bufferI4CardRNS_9allocatorIS1_EEE17__destruct_at_endB7v160006EPS1_NS_17integral_constantIbLb0EEE, symObjAddr: 0xB260, symBinAddr: 0x100010F80, symSize: 0x80 }
  - { offsetInCU: 0x16600, offset: 0x29312, size: 0x8, addend: 0x0, symName: __ZNKSt3__114__split_bufferI4CardRNS_9allocatorIS1_EEE9__end_capB7v160006Ev, symObjAddr: 0xB2E0, symBinAddr: 0x100011000, symSize: 0x20 }
  - { offsetInCU: 0x16625, offset: 0x29337, size: 0x8, addend: 0x0, symName: __ZNKSt3__117__compressed_pairIP4CardRNS_9allocatorIS1_EEE5firstB7v160006Ev, symObjAddr: 0xB300, symBinAddr: 0x100011020, symSize: 0x20 }
  - { offsetInCU: 0x1664A, offset: 0x2935C, size: 0x8, addend: 0x0, symName: __ZNSt3__16vectorI4CardNS_9allocatorIS1_EEE11__make_iterB7v160006EPS1_, symObjAddr: 0xB320, symBinAddr: 0x100011040, symSize: 0x30 }
  - { offsetInCU: 0x1667E, offset: 0x29390, size: 0x8, addend: 0x0, symName: __ZNSt3__111__wrap_iterIP4CardEC1B7v160006EPKvS2_, symObjAddr: 0xB350, symBinAddr: 0x100011070, symSize: 0x30 }
  - { offsetInCU: 0x166C3, offset: 0x293D5, size: 0x8, addend: 0x0, symName: __ZNSt3__111__wrap_iterIP4CardEC2B7v160006EPKvS2_, symObjAddr: 0xB380, symBinAddr: 0x1000110A0, symSize: 0x20 }
  - { offsetInCU: 0x16708, offset: 0x2941A, size: 0x8, addend: 0x0, symName: __ZNSt3__16vectorI4CardNS_9allocatorIS1_EEE18__construct_at_endINS_11__wrap_iterIPS1_EELi0EEEvT_S9_m, symObjAddr: 0xB470, symBinAddr: 0x100011190, symSize: 0xA0 }
  - { offsetInCU: 0x16779, offset: 0x2948B, size: 0x8, addend: 0x0, symName: __ZNSt3__16vectorI4CardNS_9allocatorIS1_EEE12__move_rangeEPS1_S5_S5_, symObjAddr: 0xB510, symBinAddr: 0x100011230, symSize: 0x140 }
  - { offsetInCU: 0x16835, offset: 0x29547, size: 0x8, addend: 0x0, symName: __ZNSt3__114__split_bufferI4CardRNS_9allocatorIS1_EEE18__construct_at_endINS_11__wrap_iterIPS1_EEEENS_9enable_ifIXsr27__is_cpp17_forward_iteratorIT_EE5valueEvE4typeESB_SB_, symObjAddr: 0xB6A0, symBinAddr: 0x1000113C0, symSize: 0xF0 }
  - { offsetInCU: 0x1688F, offset: 0x295A1, size: 0x8, addend: 0x0, symName: __ZNKSt3__111__wrap_iterIPK4CardE4baseB7v160006Ev, symObjAddr: 0xB900, symBinAddr: 0x100011620, symSize: 0x20 }
  - { offsetInCU: 0x168B4, offset: 0x295C6, size: 0x8, addend: 0x0, symName: __ZNSt3__111__wrap_iterIP4CardEpLB7v160006El, symObjAddr: 0xB9D0, symBinAddr: 0x1000116F0, symSize: 0x30 }
  - { offsetInCU: 0x168E7, offset: 0x295F9, size: 0x8, addend: 0x0, symName: __ZNSt3__116allocator_traitsINS_9allocatorI4CardEEE9constructB7v160006IS2_JRS2_EvEEvRS3_PT_DpOT0_, symObjAddr: 0xBB20, symBinAddr: 0x100011840, symSize: 0x30 }
  - { offsetInCU: 0x1693E, offset: 0x29650, size: 0x8, addend: 0x0, symName: __ZNSt3__19allocatorI4CardE9constructB7v160006IS1_JRS1_EEEvPT_DpOT0_, symObjAddr: 0xBB50, symBinAddr: 0x100011870, symSize: 0x30 }
  - { offsetInCU: 0x169B6, offset: 0x296C8, size: 0x8, addend: 0x0, symName: __ZNKSt3__120__move_backward_loopINS_17_ClassicAlgPolicyEEclB7v160006IP4CardS5_S5_EENS_4pairIT_T1_EES7_T0_S8_, symObjAddr: 0xBD40, symBinAddr: 0x100011A60, symSize: 0xA0 }
  - { offsetInCU: 0x16A3C, offset: 0x2974E, size: 0x8, addend: 0x0, symName: __ZNSt3__18_IterOpsINS_17_ClassicAlgPolicyEE4nextB7v160006IP4CardEET_S6_S6_, symObjAddr: 0xBE40, symBinAddr: 0x100011B60, symSize: 0x20 }
  - { offsetInCU: 0x16A72, offset: 0x29784, size: 0x8, addend: 0x0, symName: __ZNSt3__18_IterOpsINS_17_ClassicAlgPolicyEE11__iter_moveB7v160006IRP4CardEENS_9enable_ifIXsr12is_referenceIDTdeclsr3stdE7declvalIRT_EEEEE5valueEDTclsr3stdE4movedeclsr3stdE7declvalIS9_EEEEE4typeEOS8_, symObjAddr: 0xBE60, symBinAddr: 0x100011B80, symSize: 0x20 }
  - { offsetInCU: 0x16A9E, offset: 0x297B0, size: 0x8, addend: 0x0, symName: __ZN4CardaSEOS_, symObjAddr: 0xBE80, symBinAddr: 0x100011BA0, symSize: 0xB0 }
  - { offsetInCU: 0x16ACE, offset: 0x297E0, size: 0x8, addend: 0x0, symName: __ZNSt3__18_IterOpsINS_17_ClassicAlgPolicyEE25__validate_iter_referenceB7v160006IRP4CardEEvv, symObjAddr: 0xBF30, symBinAddr: 0x100011C50, symSize: 0x10 }
  - { offsetInCU: 0x16AEC, offset: 0x297FE, size: 0x8, addend: 0x0, symName: __ZNSt3__16vectorINS_12basic_stringIcNS_11char_traitsIcEENS_9allocatorIcEEEENS4_IS6_EEEaSB7v160006EOS8_, symObjAddr: 0xBF40, symBinAddr: 0x100011C60, symSize: 0x30 }
  - { offsetInCU: 0x16B21, offset: 0x29833, size: 0x8, addend: 0x0, symName: __ZNSt3__112basic_stringIcNS_11char_traitsIcEENS_9allocatorIcEEEaSB7v160006EOS5_, symObjAddr: 0xBF70, symBinAddr: 0x100011C90, symSize: 0x30 }
  - { offsetInCU: 0x16B55, offset: 0x29867, size: 0x8, addend: 0x0, symName: __ZNSt3__16vectorINS_12basic_stringIcNS_11char_traitsIcEENS_9allocatorIcEEEENS4_IS6_EEE13__move_assignERS8_NS_17integral_constantIbLb1EEE, symObjAddr: 0xBFA0, symBinAddr: 0x100011CC0, symSize: 0xA0 }
  - { offsetInCU: 0x16B95, offset: 0x298A7, size: 0x8, addend: 0x0, symName: __ZNSt3__16vectorINS_12basic_stringIcNS_11char_traitsIcEENS_9allocatorIcEEEENS4_IS6_EEE19__move_assign_allocB7v160006ERS8_, symObjAddr: 0xC040, symBinAddr: 0x100011D60, symSize: 0x30 }
  - { offsetInCU: 0x16BC9, offset: 0x298DB, size: 0x8, addend: 0x0, symName: __ZNSt3__16vectorINS_12basic_stringIcNS_11char_traitsIcEENS_9allocatorIcEEEENS4_IS6_EEE19__move_assign_allocB7v160006ERS8_NS_17integral_constantIbLb1EEE, symObjAddr: 0xC070, symBinAddr: 0x100011D90, symSize: 0x30 }
  - { offsetInCU: 0x16C08, offset: 0x2991A, size: 0x8, addend: 0x0, symName: __ZNSt3__112basic_stringIcNS_11char_traitsIcEENS_9allocatorIcEEE13__move_assignB7v160006ERS5_NS_17integral_constantIbLb1EEE, symObjAddr: 0xC0A0, symBinAddr: 0x100011DC0, symSize: 0xD0 }
  - { offsetInCU: 0x16C48, offset: 0x2995A, size: 0x8, addend: 0x0, symName: __ZNSt3__116allocator_traitsINS_9allocatorIcEEE10deallocateB7v160006ERS2_Pcm, symObjAddr: 0xC170, symBinAddr: 0x100011E90, symSize: 0x30 }
  - { offsetInCU: 0x16C8A, offset: 0x2999C, size: 0x8, addend: 0x0, symName: __ZNSt3__112basic_stringIcNS_11char_traitsIcEENS_9allocatorIcEEE7__allocB7v160006Ev, symObjAddr: 0xC1A0, symBinAddr: 0x100011EC0, symSize: 0x20 }
  - { offsetInCU: 0x16CAF, offset: 0x299C1, size: 0x8, addend: 0x0, symName: __ZNKSt3__112basic_stringIcNS_11char_traitsIcEENS_9allocatorIcEEE14__get_long_capB7v160006Ev, symObjAddr: 0xC1C0, symBinAddr: 0x100011EE0, symSize: 0x30 }
  - { offsetInCU: 0x16CD4, offset: 0x299E6, size: 0x8, addend: 0x0, symName: __ZNSt3__112basic_stringIcNS_11char_traitsIcEENS_9allocatorIcEEE19__move_assign_allocB7v160006ERS5_, symObjAddr: 0xC1F0, symBinAddr: 0x100011F10, symSize: 0x30 }
  - { offsetInCU: 0x16D08, offset: 0x29A1A, size: 0x8, addend: 0x0, symName: __ZNSt3__19allocatorIcE10deallocateB7v160006EPcm, symObjAddr: 0xC220, symBinAddr: 0x100011F40, symSize: 0x40 }
  - { offsetInCU: 0x16D49, offset: 0x29A5B, size: 0x8, addend: 0x0, symName: __ZNSt3__117__compressed_pairINS_12basic_stringIcNS_11char_traitsIcEENS_9allocatorIcEEE5__repES5_E6secondB7v160006Ev, symObjAddr: 0xC260, symBinAddr: 0x100011F80, symSize: 0x20 }
  - { offsetInCU: 0x16D6E, offset: 0x29A80, size: 0x8, addend: 0x0, symName: __ZNSt3__122__compressed_pair_elemINS_9allocatorIcEELi1ELb1EE5__getB7v160006Ev, symObjAddr: 0xC280, symBinAddr: 0x100011FA0, symSize: 0x10 }
  - { offsetInCU: 0x16D93, offset: 0x29AA5, size: 0x8, addend: 0x0, symName: __ZNSt3__112basic_stringIcNS_11char_traitsIcEENS_9allocatorIcEEE19__move_assign_allocB7v160006ERS5_NS_17integral_constantIbLb1EEE, symObjAddr: 0xC290, symBinAddr: 0x100011FB0, symSize: 0x30 }
  - { offsetInCU: 0x16DD2, offset: 0x29AE4, size: 0x8, addend: 0x0, symName: __ZNSt3__14pairIP4CardS2_EC1B7v160006IS2_S2_LPv0EEEOT_OT0_, symObjAddr: 0xC2C0, symBinAddr: 0x100011FE0, symSize: 0x30 }
  - { offsetInCU: 0x16E2F, offset: 0x29B41, size: 0x8, addend: 0x0, symName: __ZNSt3__14pairIP4CardS2_EC2B7v160006IS2_S2_LPv0EEEOT_OT0_, symObjAddr: 0xC2F0, symBinAddr: 0x100012010, symSize: 0x30 }
  - { offsetInCU: 0x16E8C, offset: 0x29B9E, size: 0x8, addend: 0x0, symName: __ZNKSt3__111__copy_loopINS_17_ClassicAlgPolicyEEclB7v160006IP4CardS5_S5_EENS_4pairIT_T1_EES7_T0_S8_, symObjAddr: 0xC4F0, symBinAddr: 0x100012210, symSize: 0x80 }
  - { offsetInCU: 0x16EF6, offset: 0x29C08, size: 0x8, addend: 0x0, symName: __ZNSt3__118__unwrap_iter_implINS_11__wrap_iterIP4CardEELb1EE8__unwrapB7v160006ES4_, symObjAddr: 0xC610, symBinAddr: 0x100012330, symSize: 0x20 }
  - { offsetInCU: 0x16F1E, offset: 0x29C30, size: 0x8, addend: 0x0, symName: __ZNSt3__119__to_address_helperINS_11__wrap_iterIP4CardEEvE6__callB7v160006ERKS4_, symObjAddr: 0xC650, symBinAddr: 0x100012370, symSize: 0x30 }
  - { offsetInCU: 0x16F41, offset: 0x29C53, size: 0x8, addend: 0x0, symName: __ZNSt3__114pointer_traitsINS_11__wrap_iterIP4CardEEE10to_addressB7v160006ES4_, symObjAddr: 0xC680, symBinAddr: 0x1000123A0, symSize: 0x30 }
  - { offsetInCU: 0x16F83, offset: 0x29C95, size: 0x8, addend: 0x0, symName: __ZNSt3__14pairINS_11__wrap_iterIP4CardEES3_EC1B7v160006IS4_S3_LPv0EEEOT_OT0_, symObjAddr: 0xC6B0, symBinAddr: 0x1000123D0, symSize: 0x30 }
  - { offsetInCU: 0x16FE0, offset: 0x29CF2, size: 0x8, addend: 0x0, symName: __ZNSt3__14pairINS_11__wrap_iterIP4CardEES3_EC2B7v160006IS4_S3_LPv0EEEOT_OT0_, symObjAddr: 0xC6E0, symBinAddr: 0x100012400, symSize: 0x30 }
  - { offsetInCU: 0x1703D, offset: 0x29D4F, size: 0x8, addend: 0x0, symName: __ZNSt3__118__unwrap_iter_implINS_11__wrap_iterIP4CardEELb1EE8__rewrapB7v160006ES4_S3_, symObjAddr: 0xC760, symBinAddr: 0x100012480, symSize: 0x50 }
  - { offsetInCU: 0x1706E, offset: 0x29D80, size: 0x8, addend: 0x0, symName: __ZNKSt3__111__wrap_iterIP4CardEplB7v160006El, symObjAddr: 0xC7B0, symBinAddr: 0x1000124D0, symSize: 0x40 }
  - { offsetInCU: 0x170B9, offset: 0x29DCB, size: 0x8, addend: 0x0, symName: __ZNSt3__114__split_bufferI4CardRNS_9allocatorIS1_EEE21_ConstructTransactionC1B7v160006EPPS1_m, symObjAddr: 0xC7F0, symBinAddr: 0x100012510, symSize: 0x30 }
  - { offsetInCU: 0x170FE, offset: 0x29E10, size: 0x8, addend: 0x0, symName: __ZNSt3__114__split_bufferI4CardRNS_9allocatorIS1_EEE21_ConstructTransactionD1B7v160006Ev, symObjAddr: 0xC820, symBinAddr: 0x100012540, symSize: 0x20 }
  - { offsetInCU: 0x17127, offset: 0x29E39, size: 0x8, addend: 0x0, symName: __ZNSt3__114__split_bufferI4CardRNS_9allocatorIS1_EEE21_ConstructTransactionC2B7v160006EPPS1_m, symObjAddr: 0xC840, symBinAddr: 0x100012560, symSize: 0x40 }
  - { offsetInCU: 0x1716C, offset: 0x29E7E, size: 0x8, addend: 0x0, symName: __ZNSt3__114__split_bufferI4CardRNS_9allocatorIS1_EEE21_ConstructTransactionD2B7v160006Ev, symObjAddr: 0xC880, symBinAddr: 0x1000125A0, symSize: 0x20 }
  - { offsetInCU: 0x17195, offset: 0x29EA7, size: 0x8, addend: 0x0, symName: __ZNSt3__112basic_stringIcNS_11char_traitsIcEENS_9allocatorIcEEE14__erase_to_endB7v160006Em, symObjAddr: 0xC9F0, symBinAddr: 0x1000126C0, symSize: 0x40 }
  - { offsetInCU: 0x171C9, offset: 0x29EDB, size: 0x8, addend: 0x0, symName: __ZNSt3__112basic_stringIcNS_11char_traitsIcEENS_9allocatorIcEEE19__null_terminate_atB7v160006EPcm, symObjAddr: 0xCA30, symBinAddr: 0x100012700, symSize: 0x60 }
  - { offsetInCU: 0x1720C, offset: 0x29F1E, size: 0x8, addend: 0x0, symName: __ZNSt3__112basic_stringIcNS_11char_traitsIcEENS_9allocatorIcEEE10__set_sizeB7v160006Em, symObjAddr: 0xCA90, symBinAddr: 0x100012760, symSize: 0x50 }
  - { offsetInCU: 0x17240, offset: 0x29F52, size: 0x8, addend: 0x0, symName: __ZNSt3__112basic_stringIcNS_11char_traitsIcEENS_9allocatorIcEEE27__invalidate_iterators_pastB7v160006Em, symObjAddr: 0xCAE0, symBinAddr: 0x1000127B0, symSize: 0x10 }
  - { offsetInCU: 0x17289, offset: 0x29F9B, size: 0x8, addend: 0x0, symName: __ZNSt3__112__hash_tableINS_17__hash_value_typeINS_12basic_stringIcNS_11char_traitsIcEENS_9allocatorIcEEEEiEENS_22__unordered_map_hasherIS7_S8_NS_4hashIS7_EENS_8equal_toIS7_EELb1EEENS_21__unordered_map_equalIS7_S8_SD_SB_Lb1EEENS5_IS8_EEE25__emplace_unique_key_argsIS7_JRKNS_21piecewise_construct_tENS_5tupleIJOS7_EEENSN_IJEEEEEENS_4pairINS_15__hash_iteratorIPNS_11__hash_nodeIS8_PvEEEEbEERKT_DpOT0_, symObjAddr: 0xCAF0, symBinAddr: 0x1000127C0, symSize: 0x5B0 }
  - { offsetInCU: 0x1738F, offset: 0x2A0A1, size: 0x8, addend: 0x0, symName: __ZNKSt3__115__hash_iteratorIPNS_11__hash_nodeINS_17__hash_value_typeINS_12basic_stringIcNS_11char_traitsIcEENS_9allocatorIcEEEEiEEPvEEEptB7v160006Ev, symObjAddr: 0xD0E0, symBinAddr: 0x100012DB0, symSize: 0x30 }
  - { offsetInCU: 0x173B4, offset: 0x2A0C6, size: 0x8, addend: 0x0, symName: __ZNSt3__112__hash_tableINS_17__hash_value_typeINS_12basic_stringIcNS_11char_traitsIcEENS_9allocatorIcEEEEiEENS_22__unordered_map_hasherIS7_S8_NS_4hashIS7_EENS_8equal_toIS7_EELb1EEENS_21__unordered_map_equalIS7_S8_SD_SB_Lb1EEENS5_IS8_EEE21__construct_node_hashIRKNS_21piecewise_construct_tEJNS_5tupleIJOS7_EEENSN_IJEEEEEENS_10unique_ptrINS_11__hash_nodeIS8_PvEENS_22__hash_node_destructorINS5_ISU_EEEEEEmOT_DpOT0_, symObjAddr: 0xD110, symBinAddr: 0x100012DE0, symSize: 0x150 }
  - { offsetInCU: 0x1744E, offset: 0x2A160, size: 0x8, addend: 0x0, symName: __ZNSt3__116allocator_traitsINS_9allocatorINS_11__hash_nodeINS_17__hash_value_typeINS_12basic_stringIcNS_11char_traitsIcEENS1_IcEEEEiEEPvEEEEE9constructB7v160006INS_4pairIKS8_iEEJRKNS_21piecewise_construct_tENS_5tupleIJOS8_EEENSL_IJEEEEvEEvRSC_PT_DpOT0_, symObjAddr: 0xD260, symBinAddr: 0x100012F30, symSize: 0x40 }
  - { offsetInCU: 0x174CD, offset: 0x2A1DF, size: 0x8, addend: 0x0, symName: __ZNSt3__19allocatorINS_11__hash_nodeINS_17__hash_value_typeINS_12basic_stringIcNS_11char_traitsIcEENS0_IcEEEEiEEPvEEE9constructB7v160006INS_4pairIKS7_iEEJRKNS_21piecewise_construct_tENS_5tupleIJOS7_EEENSJ_IJEEEEEEvPT_DpOT0_, symObjAddr: 0xD2A0, symBinAddr: 0x100012F70, symSize: 0x40 }
  - { offsetInCU: 0x17548, offset: 0x2A25A, size: 0x8, addend: 0x0, symName: __ZNSt3__14pairIKNS_12basic_stringIcNS_11char_traitsIcEENS_9allocatorIcEEEEiEC1B7v160006IJOS6_EJEEENS_21piecewise_construct_tENS_5tupleIJDpT_EEENSC_IJDpT0_EEE, symObjAddr: 0xD2E0, symBinAddr: 0x100012FB0, symSize: 0x40 }
  - { offsetInCU: 0x175AE, offset: 0x2A2C0, size: 0x8, addend: 0x0, symName: __ZNSt3__14pairIKNS_12basic_stringIcNS_11char_traitsIcEENS_9allocatorIcEEEEiEC1B7v160006IJOS6_EJEJLm0EEJEEENS_21piecewise_construct_tERNS_5tupleIJDpT_EEERNSC_IJDpT0_EEENS_15__tuple_indicesIJXspT1_EEEENSL_IJXspT2_EEEE, symObjAddr: 0xD320, symBinAddr: 0x100012FF0, symSize: 0x30 }
  - { offsetInCU: 0x1763A, offset: 0x2A34C, size: 0x8, addend: 0x0, symName: __ZNSt3__14pairIKNS_12basic_stringIcNS_11char_traitsIcEENS_9allocatorIcEEEEiEC2B7v160006IJOS6_EJEJLm0EEJEEENS_21piecewise_construct_tERNS_5tupleIJDpT_EEERNSC_IJDpT0_EEENS_15__tuple_indicesIJXspT1_EEEENSL_IJXspT2_EEEE, symObjAddr: 0xD350, symBinAddr: 0x100013020, symSize: 0x50 }
  - { offsetInCU: 0x176C6, offset: 0x2A3D8, size: 0x8, addend: 0x0, symName: __ZNSt3__112__tuple_leafILm0EONS_12basic_stringIcNS_11char_traitsIcEENS_9allocatorIcEEEELb0EE3getB7v160006Ev, symObjAddr: 0xD3C0, symBinAddr: 0x100013090, symSize: 0x20 }
  - { offsetInCU: 0x176EB, offset: 0x2A3FD, size: 0x8, addend: 0x0, symName: __ZNSt3__15tupleIJONS_12basic_stringIcNS_11char_traitsIcEENS_9allocatorIcEEEEEEC1B7v160006IJS6_ELi0EEEDpOT_, symObjAddr: 0xD3E0, symBinAddr: 0x1000130B0, symSize: 0x30 }
  - { offsetInCU: 0x17734, offset: 0x2A446, size: 0x8, addend: 0x0, symName: __ZNSt3__15tupleIJONS_12basic_stringIcNS_11char_traitsIcEENS_9allocatorIcEEEEEEC2B7v160006IJS6_ELi0EEEDpOT_, symObjAddr: 0xD410, symBinAddr: 0x1000130E0, symSize: 0x30 }
  - { offsetInCU: 0x1777D, offset: 0x2A48F, size: 0x8, addend: 0x0, symName: __ZNSt3__112__tuple_implINS_15__tuple_indicesIJLm0EEEEJONS_12basic_stringIcNS_11char_traitsIcEENS_9allocatorIcEEEEEEC1B7v160006IJLm0EEJS9_EJEJEJS8_EEENS1_IJXspT_EEEENS_13__tuple_typesIJDpT0_EEENS1_IJXspT1_EEEENSD_IJDpT2_EEEDpOT3_, symObjAddr: 0xD440, symBinAddr: 0x100013110, symSize: 0x30 }
  - { offsetInCU: 0x1780D, offset: 0x2A51F, size: 0x8, addend: 0x0, symName: __ZNSt3__112__tuple_implINS_15__tuple_indicesIJLm0EEEEJONS_12basic_stringIcNS_11char_traitsIcEENS_9allocatorIcEEEEEEC2B7v160006IJLm0EEJS9_EJEJEJS8_EEENS1_IJXspT_EEEENS_13__tuple_typesIJDpT0_EEENS1_IJXspT1_EEEENSD_IJDpT2_EEEDpOT3_, symObjAddr: 0xD470, symBinAddr: 0x100013140, symSize: 0x30 }
  - { offsetInCU: 0x1789D, offset: 0x2A5AF, size: 0x8, addend: 0x0, symName: __ZNSt3__112__tuple_leafILm0EONS_12basic_stringIcNS_11char_traitsIcEENS_9allocatorIcEEEELb0EEC2B7v160006IS6_vEEOT_, symObjAddr: 0xD4A0, symBinAddr: 0x100013170, symSize: 0x20 }
  - { offsetInCU: 0x178DF, offset: 0x2A5F1, size: 0x8, addend: 0x0, symName: __ZNSt3__114pointer_traitsIPNS_17__hash_value_typeINS_12basic_stringIcNS_11char_traitsIcEENS_9allocatorIcEEEEiEEE10pointer_toB7v160006ERS8_, symObjAddr: 0xD4C0, symBinAddr: 0x100013190, symSize: 0xE }
  - { offsetInCU: 0x2F17, offset: 0x2D74B, size: 0x8, addend: 0x0, symName: __ZNSt3__17advanceB7v160006IPKNS_12basic_stringIcNS_11char_traitsIcEENS_9allocatorIcEEEEmmvEEvRT_T0_, symObjAddr: 0x1C70, symBinAddr: 0x1000144F0, symSize: 0x50 }
  - { offsetInCU: 0x3BE1, offset: 0x2E415, size: 0x8, addend: 0x0, symName: __ZNSt3__1plB7v160006IcNS_11char_traitsIcEENS_9allocatorIcEEEENS_12basic_stringIT_T0_T1_EEOS9_SA_, symObjAddr: 0xF90, symBinAddr: 0x1000140C0, symSize: 0x50 }
  - { offsetInCU: 0x3C39, offset: 0x2E46D, size: 0x8, addend: 0x0, symName: __ZNSt3__18distanceB7v160006IPKNS_12basic_stringIcNS_11char_traitsIcEENS_9allocatorIcEEEEEENS_15iterator_traitsIT_E15difference_typeESA_SA_, symObjAddr: 0x1C40, symBinAddr: 0x1000144C0, symSize: 0x30 }
  - { offsetInCU: 0x3C7C, offset: 0x2E4B0, size: 0x8, addend: 0x0, symName: __ZNSt3__14copyB7v160006IPKNS_12basic_stringIcNS_11char_traitsIcEENS_9allocatorIcEEEEPS6_EET0_T_SB_SA_, symObjAddr: 0x1CC0, symBinAddr: 0x100014540, symSize: 0x40 }
  - { offsetInCU: 0x3CD6, offset: 0x2E50A, size: 0x8, addend: 0x0, symName: __ZNSt3__110__distanceB7v160006IPKNS_12basic_stringIcNS_11char_traitsIcEENS_9allocatorIcEEEEEENS_15iterator_traitsIT_E15difference_typeESA_SA_NS_26random_access_iterator_tagE, symObjAddr: 0x1FC0, symBinAddr: 0x100014610, symSize: 0x30 }
  - { offsetInCU: 0x3D23, offset: 0x2E557, size: 0x8, addend: 0x0, symName: __ZNSt3__19__advanceB7v160006IPKNS_12basic_stringIcNS_11char_traitsIcEENS_9allocatorIcEEEEEEvRT_NS_15iterator_traitsIS9_E15difference_typeENS_26random_access_iterator_tagE, symObjAddr: 0x2000, symBinAddr: 0x100014640, symSize: 0x20 }
  - { offsetInCU: 0x3D6C, offset: 0x2E5A0, size: 0x8, addend: 0x0, symName: __ZNSt3__16__copyB7v160006INS_17_ClassicAlgPolicyEPKNS_12basic_stringIcNS_11char_traitsIcEENS_9allocatorIcEEEES9_PS7_EENS_4pairIT0_T2_EESC_T1_SD_, symObjAddr: 0x2020, symBinAddr: 0x100014660, symSize: 0x40 }
  - { offsetInCU: 0x3DD8, offset: 0x2E60C, size: 0x8, addend: 0x0, symName: __ZNSt3__123__dispatch_copy_or_moveB7v160006INS_17_ClassicAlgPolicyENS_11__copy_loopIS1_EENS_14__copy_trivialEPKNS_12basic_stringIcNS_11char_traitsIcEENS_9allocatorIcEEEESC_PSA_EENS_4pairIT2_T4_EESF_T3_SG_, symObjAddr: 0x2060, symBinAddr: 0x1000146A0, symSize: 0x40 }
  - { offsetInCU: 0x3E56, offset: 0x2E68A, size: 0x8, addend: 0x0, symName: __ZNSt3__121__unwrap_and_dispatchB7v160006INS_10__overloadINS_11__copy_loopINS_17_ClassicAlgPolicyEEENS_14__copy_trivialEEEPKNS_12basic_stringIcNS_11char_traitsIcEENS_9allocatorIcEEEESE_PSC_Li0EEENS_4pairIT0_T2_EESH_T1_SI_, symObjAddr: 0x20A0, symBinAddr: 0x1000146E0, symSize: 0xB0 }
  - { offsetInCU: 0x3EE5, offset: 0x2E719, size: 0x8, addend: 0x0, symName: __ZNSt3__114__unwrap_rangeB7v160006IPKNS_12basic_stringIcNS_11char_traitsIcEENS_9allocatorIcEEEES8_EENS_4pairIT0_SA_EET_SC_, symObjAddr: 0x2150, symBinAddr: 0x100014790, symSize: 0x50 }
  - { offsetInCU: 0x4057, offset: 0x2E88B, size: 0x8, addend: 0x0, symName: __ZNSt3__19make_pairB7v160006IPKNS_12basic_stringIcNS_11char_traitsIcEENS_9allocatorIcEEEEPS6_EENS_4pairINS_18__unwrap_ref_decayIT_E4typeENSB_IT0_E4typeEEEOSC_OSF_, symObjAddr: 0x2240, symBinAddr: 0x100014860, symSize: 0x30 }
  - { offsetInCU: 0x40A6, offset: 0x2E8DA, size: 0x8, addend: 0x0, symName: __ZNSt3__114__rewrap_rangeB7v160006IPKNS_12basic_stringIcNS_11char_traitsIcEENS_9allocatorIcEEEES8_EET_S9_T0_, symObjAddr: 0x2270, symBinAddr: 0x100014890, symSize: 0x30 }
  - { offsetInCU: 0x40F2, offset: 0x2E926, size: 0x8, addend: 0x0, symName: __ZNSt3__19make_pairB7v160006IPKNS_12basic_stringIcNS_11char_traitsIcEENS_9allocatorIcEEEES8_EENS_4pairINS_18__unwrap_ref_decayIT_E4typeENSA_IT0_E4typeEEEOSB_OSE_, symObjAddr: 0x22E0, symBinAddr: 0x1000148C0, symSize: 0x30 }
  - { offsetInCU: 0x4141, offset: 0x2E975, size: 0x8, addend: 0x0, symName: __ZNSt3__113__unwrap_iterB7v160006IPKNS_12basic_stringIcNS_11char_traitsIcEENS_9allocatorIcEEEENS_18__unwrap_iter_implIS8_Lb1EEELi0EEEDTclsrT0_8__unwrapclsr3stdE7declvalIT_EEEESC_, symObjAddr: 0x2310, symBinAddr: 0x1000148F0, symSize: 0x20 }
  - { offsetInCU: 0x42AC, offset: 0x2EAE0, size: 0x8, addend: 0x0, symName: __ZNSt3__112__to_addressB7v160006IKNS_12basic_stringIcNS_11char_traitsIcEENS_9allocatorIcEEEEEEPT_S9_, symObjAddr: 0x23B0, symBinAddr: 0x100014990, symSize: 0x10 }
  - { offsetInCU: 0x42E1, offset: 0x2EB15, size: 0x8, addend: 0x0, symName: __ZNSt3__113__rewrap_iterB7v160006IPKNS_12basic_stringIcNS_11char_traitsIcEENS_9allocatorIcEEEES8_NS_18__unwrap_iter_implIS8_Lb1EEEEET_SB_T0_, symObjAddr: 0x2440, symBinAddr: 0x100014A00, symSize: 0x40 }
  - { offsetInCU: 0x4336, offset: 0x2EB6A, size: 0x8, addend: 0x0, symName: __ZNSt3__130__uninitialized_allocator_copyB7v160006INS_9allocatorINS_12basic_stringIcNS_11char_traitsIcEENS1_IcEEEEEEPKS6_S9_PS6_EET2_RT_T0_T1_SB_, symObjAddr: 0x2570, symBinAddr: 0x100014AA0, symSize: 0x100 }
  - { offsetInCU: 0x65B8, offset: 0x30DEC, size: 0x8, addend: 0x0, symName: __ZN4CardC2Eii, symObjAddr: 0x0, symBinAddr: 0x1000131A0, symSize: 0xCF0 }
  - { offsetInCU: 0x6602, offset: 0x30E36, size: 0x8, addend: 0x0, symName: __ZNSt3__16vectorINS_12basic_stringIcNS_11char_traitsIcEENS_9allocatorIcEEEENS4_IS6_EEEC1B7v160006Ev, symObjAddr: 0xCF0, symBinAddr: 0x100013E90, symSize: 0x20 }
  - { offsetInCU: 0x6630, offset: 0x30E64, size: 0x8, addend: 0x0, symName: __ZNSt3__16vectorINS_12basic_stringIcNS_11char_traitsIcEENS_9allocatorIcEEEENS4_IS6_EEEaSB7v160006ESt16initializer_listIS6_E, symObjAddr: 0xD60, symBinAddr: 0x100013EB0, symSize: 0x50 }
  - { offsetInCU: 0x6664, offset: 0x30E98, size: 0x8, addend: 0x0, symName: __ZNSt3__16vectorINS_12basic_stringIcNS_11char_traitsIcEENS_9allocatorIcEEEENS4_IS6_EEEixB7v160006Em, symObjAddr: 0xDB0, symBinAddr: 0x100013F00, symSize: 0x20 }
  - { offsetInCU: 0x6699, offset: 0x30ECD, size: 0x8, addend: 0x0, symName: __ZN4CardC1Eii, symObjAddr: 0xDF0, symBinAddr: 0x100013F20, symSize: 0x30 }
  - { offsetInCU: 0x66E0, offset: 0x30F14, size: 0x8, addend: 0x0, symName: __ZN4Card8getValueEv, symObjAddr: 0xE20, symBinAddr: 0x100013F50, symSize: 0x40 }
  - { offsetInCU: 0x6706, offset: 0x30F3A, size: 0x8, addend: 0x0, symName: __ZN4Card7getSuitEv, symObjAddr: 0xE60, symBinAddr: 0x100013F90, symSize: 0x30 }
  - { offsetInCU: 0x672D, offset: 0x30F61, size: 0x8, addend: 0x0, symName: __ZN4Card3getEv, symObjAddr: 0xE90, symBinAddr: 0x100013FC0, symSize: 0x100 }
  - { offsetInCU: 0x6754, offset: 0x30F88, size: 0x8, addend: 0x0, symName: __ZN4Card14showValueShortEv, symObjAddr: 0x1030, symBinAddr: 0x100014110, symSize: 0x50 }
  - { offsetInCU: 0x677B, offset: 0x30FAF, size: 0x8, addend: 0x0, symName: __ZN4Card13showSuitShortEv, symObjAddr: 0x1080, symBinAddr: 0x100014160, symSize: 0x30 }
  - { offsetInCU: 0x67A2, offset: 0x30FD6, size: 0x8, addend: 0x0, symName: __ZNSt3__112basic_stringIcNS_11char_traitsIcEENS_9allocatorIcEEEixB7v160006Em, symObjAddr: 0x10B0, symBinAddr: 0x100014190, symSize: 0x30 }
  - { offsetInCU: 0x67D6, offset: 0x3100A, size: 0x8, addend: 0x0, symName: __ZN4Card11getValueidxEv, symObjAddr: 0x10E0, symBinAddr: 0x1000141C0, symSize: 0x20 }
  - { offsetInCU: 0x67FD, offset: 0x31031, size: 0x8, addend: 0x0, symName: __ZN4Card10getSuitidxEv, symObjAddr: 0x1100, symBinAddr: 0x1000141E0, symSize: 0x20 }
  - { offsetInCU: 0x6824, offset: 0x31058, size: 0x8, addend: 0x0, symName: __ZNSt3__16vectorINS_12basic_stringIcNS_11char_traitsIcEENS_9allocatorIcEEEENS4_IS6_EEEC2B7v160006Ev, symObjAddr: 0x1120, symBinAddr: 0x100014200, symSize: 0x60 }
  - { offsetInCU: 0x6857, offset: 0x3108B, size: 0x8, addend: 0x0, symName: __ZNSt3__117__compressed_pairIPNS_12basic_stringIcNS_11char_traitsIcEENS_9allocatorIcEEEENS4_IS6_EEEC1B7v160006IDnNS_18__default_init_tagEEEOT_OT0_, symObjAddr: 0x1180, symBinAddr: 0x100014260, symSize: 0x30 }
  - { offsetInCU: 0x68AE, offset: 0x310E2, size: 0x8, addend: 0x0, symName: __ZNSt3__117__compressed_pairIPNS_12basic_stringIcNS_11char_traitsIcEENS_9allocatorIcEEEENS4_IS6_EEEC2B7v160006IDnNS_18__default_init_tagEEEOT_OT0_, symObjAddr: 0x11D0, symBinAddr: 0x100014290, symSize: 0x40 }
  - { offsetInCU: 0x6905, offset: 0x31139, size: 0x8, addend: 0x0, symName: __ZNSt3__122__compressed_pair_elemINS_9allocatorINS_12basic_stringIcNS_11char_traitsIcEENS1_IcEEEEEELi1ELb1EEC2B7v160006ENS_18__default_init_tagE, symObjAddr: 0x1230, symBinAddr: 0x1000142D0, symSize: 0x20 }
  - { offsetInCU: 0x6938, offset: 0x3116C, size: 0x8, addend: 0x0, symName: __ZNSt3__19allocatorINS_12basic_stringIcNS_11char_traitsIcEENS0_IcEEEEEC2B7v160006Ev, symObjAddr: 0x1250, symBinAddr: 0x1000142F0, symSize: 0x20 }
  - { offsetInCU: 0x6961, offset: 0x31195, size: 0x8, addend: 0x0, symName: __ZNSt3__116__non_trivial_ifILb1ENS_9allocatorINS_12basic_stringIcNS_11char_traitsIcEENS1_IcEEEEEEEC2B7v160006Ev, symObjAddr: 0x1270, symBinAddr: 0x100014310, symSize: 0x10 }
  - { offsetInCU: 0x698A, offset: 0x311BE, size: 0x8, addend: 0x0, symName: __ZNSt3__16vectorINS_12basic_stringIcNS_11char_traitsIcEENS_9allocatorIcEEEENS4_IS6_EEE6assignIPKS6_Li0EEEvT_SC_, symObjAddr: 0x1AA0, symBinAddr: 0x100014320, symSize: 0x160 }
  - { offsetInCU: 0x6A27, offset: 0x3125B, size: 0x8, addend: 0x0, symName: __ZNKSt16initializer_listINSt3__112basic_stringIcNS0_11char_traitsIcEENS0_9allocatorIcEEEEE5beginB7v160006Ev, symObjAddr: 0x1C00, symBinAddr: 0x100014480, symSize: 0x20 }
  - { offsetInCU: 0x6A4C, offset: 0x31280, size: 0x8, addend: 0x0, symName: __ZNKSt16initializer_listINSt3__112basic_stringIcNS0_11char_traitsIcEENS0_9allocatorIcEEEEE3endB7v160006Ev, symObjAddr: 0x1C20, symBinAddr: 0x1000144A0, symSize: 0x20 }
  - { offsetInCU: 0x6A71, offset: 0x312A5, size: 0x8, addend: 0x0, symName: __ZNSt3__16vectorINS_12basic_stringIcNS_11char_traitsIcEENS_9allocatorIcEEEENS4_IS6_EEE18__construct_at_endIPKS6_Li0EEEvT_SC_m, symObjAddr: 0x1D00, symBinAddr: 0x100014580, symSize: 0x90 }
  - { offsetInCU: 0x6B05, offset: 0x31339, size: 0x8, addend: 0x0, symName: __ZNKSt3__111__copy_loopINS_17_ClassicAlgPolicyEEclB7v160006IPKNS_12basic_stringIcNS_11char_traitsIcEENS_9allocatorIcEEEESB_PS9_EENS_4pairIT_T1_EESE_T0_SF_, symObjAddr: 0x21A0, symBinAddr: 0x1000147E0, symSize: 0x80 }
  - { offsetInCU: 0x6B8D, offset: 0x313C1, size: 0x8, addend: 0x0, symName: __ZNSt3__14pairIPKNS_12basic_stringIcNS_11char_traitsIcEENS_9allocatorIcEEEES8_EC1B7v160006IS8_S8_LPv0EEEOT_OT0_, symObjAddr: 0x2330, symBinAddr: 0x100014910, symSize: 0x30 }
  - { offsetInCU: 0x6BEA, offset: 0x3141E, size: 0x8, addend: 0x0, symName: __ZNSt3__14pairIPKNS_12basic_stringIcNS_11char_traitsIcEENS_9allocatorIcEEEES8_EC2B7v160006IS8_S8_LPv0EEEOT_OT0_, symObjAddr: 0x2360, symBinAddr: 0x100014940, symSize: 0x30 }
  - { offsetInCU: 0x6C47, offset: 0x3147B, size: 0x8, addend: 0x0, symName: __ZNSt3__118__unwrap_iter_implIPKNS_12basic_stringIcNS_11char_traitsIcEENS_9allocatorIcEEEELb1EE8__unwrapB7v160006ES8_, symObjAddr: 0x2390, symBinAddr: 0x100014970, symSize: 0x20 }
  - { offsetInCU: 0x6C6F, offset: 0x314A3, size: 0x8, addend: 0x0, symName: __ZNSt3__14pairIPKNS_12basic_stringIcNS_11char_traitsIcEENS_9allocatorIcEEEEPS6_EC1B7v160006IS8_S9_LPv0EEEOT_OT0_, symObjAddr: 0x23E0, symBinAddr: 0x1000149A0, symSize: 0x30 }
  - { offsetInCU: 0x6CCC, offset: 0x31500, size: 0x8, addend: 0x0, symName: __ZNSt3__14pairIPKNS_12basic_stringIcNS_11char_traitsIcEENS_9allocatorIcEEEEPS6_EC2B7v160006IS8_S9_LPv0EEEOT_OT0_, symObjAddr: 0x2410, symBinAddr: 0x1000149D0, symSize: 0x30 }
  - { offsetInCU: 0x6D29, offset: 0x3155D, size: 0x8, addend: 0x0, symName: __ZNSt3__118__unwrap_iter_implIPKNS_12basic_stringIcNS_11char_traitsIcEENS_9allocatorIcEEEELb1EE8__rewrapB7v160006ES8_S8_, symObjAddr: 0x2480, symBinAddr: 0x100014A40, symSize: 0x60 }
  - { offsetInCU: 0x6D73, offset: 0x315A7, size: 0x8, addend: 0x0, symName: __ZNSt3__116allocator_traitsINS_9allocatorINS_12basic_stringIcNS_11char_traitsIcEENS1_IcEEEEEEE9constructB7v160006IS6_JRKS6_EvEEvRS7_PT_DpOT0_, symObjAddr: 0x2770, symBinAddr: 0x100014BA0, symSize: 0x30 }
  - { offsetInCU: 0x6DCA, offset: 0x315FE, size: 0x8, addend: 0x0, symName: __ZNSt3__19allocatorINS_12basic_stringIcNS_11char_traitsIcEENS0_IcEEEEE9constructB7v160006IS5_JRKS5_EEEvPT_DpOT0_, symObjAddr: 0x2890, symBinAddr: 0x100014BD0, symSize: 0x30 }
  - { offsetInCU: 0x5604, offset: 0x36C93, size: 0x8, addend: 0x0, symName: __ZNSt3__19__shuffleB7v160006INS_17_ClassicAlgPolicyENS_11__wrap_iterIP4CardEES5_RNS_26linear_congruential_engineIjLj48271ELj0ELj2147483647EEEEET0_S9_T1_OT2_, symObjAddr: 0x4E20, symBinAddr: 0x100015620, symSize: 0x120 }
  - { offsetInCU: 0x5B5D, offset: 0x371EC, size: 0x8, addend: 0x0, symName: __ZNSt3__17advanceB7v160006IP4CardmmvEEvRT_T0_, symObjAddr: 0x62E0, symBinAddr: 0x100016210, symSize: 0x50 }
  - { offsetInCU: 0x6807, offset: 0x37E96, size: 0x8, addend: 0x0, symName: __ZNSt3__1lsB7v160006IcNS_11char_traitsIcEENS_9allocatorIcEEEERNS_13basic_ostreamIT_T0_EES9_RKNS_12basic_stringIS6_S7_T1_EE, symObjAddr: 0x6B0, symBinAddr: 0x100015130, symSize: 0x50 }
  - { offsetInCU: 0x6944, offset: 0x37FD3, size: 0x8, addend: 0x0, symName: __ZNSt3__17shuffleB7v160006INS_11__wrap_iterIP4CardEERNS_26linear_congruential_engineIjLj48271ELj0ELj2147483647EEEEEvT_S8_OT0_, symObjAddr: 0x880, symBinAddr: 0x1000152E0, symSize: 0x40 }
  - { offsetInCU: 0x699A, offset: 0x38029, size: 0x8, addend: 0x0, symName: __ZNSt3__15beginB7v160006INS_6vectorI4CardNS_9allocatorIS2_EEEEEEDTcldtfp_5beginEERT_, symObjAddr: 0x8C0, symBinAddr: 0x100015320, symSize: 0x30 }
  - { offsetInCU: 0x69CF, offset: 0x3805E, size: 0x8, addend: 0x0, symName: __ZNSt3__13endB7v160006INS_6vectorI4CardNS_9allocatorIS2_EEEEEEDTcldtfp_3endEERT_, symObjAddr: 0x8F0, symBinAddr: 0x100015350, symSize: 0x30 }
  - { offsetInCU: 0x6A62, offset: 0x380F1, size: 0x8, addend: 0x0, symName: __ZNSt3__1ltB7v160006IP4CardEEbRKNS_11__wrap_iterIT_EES7_, symObjAddr: 0x4FF0, symBinAddr: 0x1000157B0, symSize: 0x40 }
  - { offsetInCU: 0x6AA5, offset: 0x38134, size: 0x8, addend: 0x0, symName: __ZNSt3__113__countl_zeroB7v160006ImEEiT_, symObjAddr: 0x5340, symBinAddr: 0x100015AC0, symSize: 0x40 }
  - { offsetInCU: 0x6B40, offset: 0x381CF, size: 0x8, addend: 0x0, symName: __ZNSt3__19iter_swapB7v160006INS_11__wrap_iterIP4CardEES4_EEvT_T0_, symObjAddr: 0x5860, symBinAddr: 0x100015FA0, symSize: 0x40 }
  - { offsetInCU: 0x6B88, offset: 0x38217, size: 0x8, addend: 0x0, symName: __ZNSt3__14swapB7v160006I4CardEENS_9enable_ifIXaasr21is_move_constructibleIT_EE5valuesr18is_move_assignableIS3_EE5valueEvE4typeERS3_S6_, symObjAddr: 0x58A0, symBinAddr: 0x100015FE0, symSize: 0x60 }
  - { offsetInCU: 0x6BDA, offset: 0x38269, size: 0x8, addend: 0x0, symName: __ZNSt3__18distanceB7v160006IP4CardEENS_15iterator_traitsIT_E15difference_typeES4_S4_, symObjAddr: 0x62B0, symBinAddr: 0x1000161E0, symSize: 0x30 }
  - { offsetInCU: 0x6C1D, offset: 0x382AC, size: 0x8, addend: 0x0, symName: __ZNSt3__14copyB7v160006IP4CardS2_EET0_T_S4_S3_, symObjAddr: 0x6330, symBinAddr: 0x100016260, symSize: 0x40 }
  - { offsetInCU: 0x6C77, offset: 0x38306, size: 0x8, addend: 0x0, symName: __ZNSt3__110__distanceB7v160006IP4CardEENS_15iterator_traitsIT_E15difference_typeES4_S4_NS_26random_access_iterator_tagE, symObjAddr: 0x6520, symBinAddr: 0x100016330, symSize: 0x30 }
  - { offsetInCU: 0x6CC4, offset: 0x38353, size: 0x8, addend: 0x0, symName: __ZNSt3__19__advanceB7v160006IP4CardEEvRT_NS_15iterator_traitsIS3_E15difference_typeENS_26random_access_iterator_tagE, symObjAddr: 0x6560, symBinAddr: 0x100016360, symSize: 0x30 }
  - { offsetInCU: 0x6D0D, offset: 0x3839C, size: 0x8, addend: 0x0, symName: __ZNSt3__16__copyB7v160006INS_17_ClassicAlgPolicyEP4CardS3_S3_EENS_4pairIT0_T2_EES5_T1_S6_, symObjAddr: 0x6590, symBinAddr: 0x100016390, symSize: 0x40 }
  - { offsetInCU: 0x6D79, offset: 0x38408, size: 0x8, addend: 0x0, symName: __ZNSt3__123__dispatch_copy_or_moveB7v160006INS_17_ClassicAlgPolicyENS_11__copy_loopIS1_EENS_14__copy_trivialEP4CardS6_S6_EENS_4pairIT2_T4_EES8_T3_S9_, symObjAddr: 0x65D0, symBinAddr: 0x1000163D0, symSize: 0x40 }
  - { offsetInCU: 0x6DF7, offset: 0x38486, size: 0x8, addend: 0x0, symName: __ZNSt3__121__unwrap_and_dispatchB7v160006INS_10__overloadINS_11__copy_loopINS_17_ClassicAlgPolicyEEENS_14__copy_trivialEEEP4CardS8_S8_Li0EEENS_4pairIT0_T2_EESA_T1_SB_, symObjAddr: 0x6610, symBinAddr: 0x100016410, symSize: 0xB0 }
  - { offsetInCU: 0x6F5A, offset: 0x385E9, size: 0x8, addend: 0x0, symName: __ZNSt3__130__uninitialized_allocator_copyB7v160006INS_9allocatorI4CardEEPS2_S4_S4_EET2_RT_T0_T1_S5_, symObjAddr: 0x71A0, symBinAddr: 0x1000164C0, symSize: 0x100 }
  - { offsetInCU: 0x75F2, offset: 0x38C81, size: 0x8, addend: 0x0, symName: __ZNSt3__124uniform_int_distributionIlEclINS_26linear_congruential_engineIjLj48271ELj0ELj2147483647EEEEElRT_RKNS1_10param_typeE, symObjAddr: 0x5030, symBinAddr: 0x1000157F0, symSize: 0x170 }
  - { offsetInCU: 0x95E3, offset: 0x3AC72, size: 0x8, addend: 0x0, symName: __ZN4DeckC2Ev, symObjAddr: 0x0, symBinAddr: 0x100014C00, symSize: 0x70 }
  - { offsetInCU: 0x960E, offset: 0x3AC9D, size: 0x8, addend: 0x0, symName: __ZN4Deck7newDeckEv, symObjAddr: 0x90, symBinAddr: 0x100014C70, symSize: 0x100 }
  - { offsetInCU: 0x9672, offset: 0x3AD01, size: 0x8, addend: 0x0, symName: __ZN4DeckC1Ev, symObjAddr: 0x1B0, symBinAddr: 0x100014D70, symSize: 0x20 }
  - { offsetInCU: 0x969D, offset: 0x3AD2C, size: 0x8, addend: 0x0, symName: __ZN4Deck8drawCardEv, symObjAddr: 0x1D0, symBinAddr: 0x100014D90, symSize: 0x90 }
  - { offsetInCU: 0x96D2, offset: 0x3AD61, size: 0x8, addend: 0x0, symName: __ZNSt3__16vectorI4CardNS_9allocatorIS1_EEE4backB7v160006Ev, symObjAddr: 0x260, symBinAddr: 0x100014E20, symSize: 0x20 }
  - { offsetInCU: 0x96F7, offset: 0x3AD86, size: 0x8, addend: 0x0, symName: __ZNSt3__16vectorI4CardNS_9allocatorIS1_EEE8pop_backEv, symObjAddr: 0x2B0, symBinAddr: 0x100014E40, symSize: 0x30 }
  - { offsetInCU: 0x971D, offset: 0x3ADAC, size: 0x8, addend: 0x0, symName: __ZN4Deck9drawCardsEi, symObjAddr: 0x300, symBinAddr: 0x100014E70, symSize: 0x120 }
  - { offsetInCU: 0x977D, offset: 0x3AE0C, size: 0x8, addend: 0x0, symName: __ZNSt3__16vectorI4CardNS_9allocatorIS1_EEE9push_backB7v160006EOS1_, symObjAddr: 0x420, symBinAddr: 0x100014F90, symSize: 0x60 }
  - { offsetInCU: 0x97B2, offset: 0x3AE41, size: 0x8, addend: 0x0, symName: __ZN4Deck11revealCardsEv, symObjAddr: 0x480, symBinAddr: 0x100014FF0, symSize: 0x140 }
  - { offsetInCU: 0x981B, offset: 0x3AEAA, size: 0x8, addend: 0x0, symName: __ZN4Deck12shuffleCardsEv, symObjAddr: 0x720, symBinAddr: 0x100015180, symSize: 0xC0 }
  - { offsetInCU: 0x9877, offset: 0x3AF06, size: 0x8, addend: 0x0, symName: __ZNSt3__113random_deviceC1Ev, symObjAddr: 0x7E0, symBinAddr: 0x100015240, symSize: 0x70 }
  - { offsetInCU: 0x98A0, offset: 0x3AF2F, size: 0x8, addend: 0x0, symName: __ZNSt3__126linear_congruential_engineIjLj48271ELj0ELj2147483647EEC1B7v160006Ej, symObjAddr: 0x850, symBinAddr: 0x1000152B0, symSize: 0x30 }
  - { offsetInCU: 0x98D7, offset: 0x3AF66, size: 0x8, addend: 0x0, symName: __ZNSt3__16vectorI4CardNS_9allocatorIS1_EEEaSB7v160006ERKS4_, symObjAddr: 0x980, symBinAddr: 0x100015380, symSize: 0x60 }
  - { offsetInCU: 0x990C, offset: 0x3AF9B, size: 0x8, addend: 0x0, symName: __ZN4Deck9resetDeckEv, symObjAddr: 0x9E0, symBinAddr: 0x1000153E0, symSize: 0x30 }
  - { offsetInCU: 0x9960, offset: 0x3AFEF, size: 0x8, addend: 0x0, symName: __ZNSt3__16vectorI4CardNS_9allocatorIS1_EEE22__construct_one_at_endB7v160006IJS1_EEEvDpOT_, symObjAddr: 0x2AE0, symBinAddr: 0x100015410, symSize: 0x90 }
  - { offsetInCU: 0x99AE, offset: 0x3B03D, size: 0x8, addend: 0x0, symName: __ZNSt3__16vectorI4CardNS_9allocatorIS1_EEE21__push_back_slow_pathIS1_EEvOT_, symObjAddr: 0x2B70, symBinAddr: 0x1000154A0, symSize: 0xD0 }
  - { offsetInCU: 0x9A4B, offset: 0x3B0DA, size: 0x8, addend: 0x0, symName: __ZNSt3__126linear_congruential_engineIjLj48271ELj0ELj2147483647EEC2B7v160006Ej, symObjAddr: 0x4D70, symBinAddr: 0x100015570, symSize: 0x30 }
  - { offsetInCU: 0x9A82, offset: 0x3B111, size: 0x8, addend: 0x0, symName: __ZNSt3__126linear_congruential_engineIjLj48271ELj0ELj2147483647EE4seedB7v160006Ej, symObjAddr: 0x4DA0, symBinAddr: 0x1000155A0, symSize: 0x30 }
  - { offsetInCU: 0x9AB5, offset: 0x3B144, size: 0x8, addend: 0x0, symName: __ZNSt3__126linear_congruential_engineIjLj48271ELj0ELj2147483647EE4seedB7v160006ENS_17integral_constantIbLb0EEENS2_IbLb1EEEj, symObjAddr: 0x4DD0, symBinAddr: 0x1000155D0, symSize: 0x50 }
  - { offsetInCU: 0x9AFF, offset: 0x3B18E, size: 0x8, addend: 0x0, symName: __ZNSt3__18_IterOpsINS_17_ClassicAlgPolicyEE4nextB7v160006INS_11__wrap_iterIP4CardEEEET_S8_S8_, symObjAddr: 0x4F40, symBinAddr: 0x100015740, symSize: 0x20 }
  - { offsetInCU: 0x9B35, offset: 0x3B1C4, size: 0x8, addend: 0x0, symName: __ZNSt3__124uniform_int_distributionIlEC1Ev, symObjAddr: 0x4FA0, symBinAddr: 0x100015760, symSize: 0x30 }
  - { offsetInCU: 0x9B5E, offset: 0x3B1ED, size: 0x8, addend: 0x0, symName: __ZNSt3__111__wrap_iterIP4CardEmmB7v160006Ev, symObjAddr: 0x4FD0, symBinAddr: 0x100015790, symSize: 0x20 }
  - { offsetInCU: 0x9B83, offset: 0x3B212, size: 0x8, addend: 0x0, symName: __ZNSt3__124uniform_int_distributionIlE10param_typeC1Ell, symObjAddr: 0x51A0, symBinAddr: 0x100015960, symSize: 0x30 }
  - { offsetInCU: 0x9BCD, offset: 0x3B25C, size: 0x8, addend: 0x0, symName: __ZNSt3__18_IterOpsINS_17_ClassicAlgPolicyEE9iter_swapB7v160006IRNS_11__wrap_iterIP4CardEES7_EEvOT_OT0_, symObjAddr: 0x51D0, symBinAddr: 0x100015990, symSize: 0x40 }
  - { offsetInCU: 0x9C10, offset: 0x3B29F, size: 0x8, addend: 0x0, symName: __ZNSt3__124uniform_int_distributionIlEC1Ell, symObjAddr: 0x5250, symBinAddr: 0x1000159D0, symSize: 0x30 }
  - { offsetInCU: 0x9C55, offset: 0x3B2E4, size: 0x8, addend: 0x0, symName: __ZNSt3__124uniform_int_distributionIlEC2Ell, symObjAddr: 0x5280, symBinAddr: 0x100015A00, symSize: 0x30 }
  - { offsetInCU: 0x9C9A, offset: 0x3B329, size: 0x8, addend: 0x0, symName: __ZNKSt3__124uniform_int_distributionIlE10param_type1bEv, symObjAddr: 0x52B0, symBinAddr: 0x100015A30, symSize: 0x20 }
  - { offsetInCU: 0x9CBF, offset: 0x3B34E, size: 0x8, addend: 0x0, symName: __ZNKSt3__124uniform_int_distributionIlE10param_type1aEv, symObjAddr: 0x52D0, symBinAddr: 0x100015A50, symSize: 0x20 }
  - { offsetInCU: 0x9CE4, offset: 0x3B373, size: 0x8, addend: 0x0, symName: __ZNSt3__125__independent_bits_engineINS_26linear_congruential_engineIjLj48271ELj0ELj2147483647EEEmEC1ERS2_m, symObjAddr: 0x52F0, symBinAddr: 0x100015A70, symSize: 0x30 }
  - { offsetInCU: 0x9D2A, offset: 0x3B3B9, size: 0x8, addend: 0x0, symName: __ZNSt3__125__independent_bits_engineINS_26linear_congruential_engineIjLj48271ELj0ELj2147483647EEEmEclEv, symObjAddr: 0x5320, symBinAddr: 0x100015AA0, symSize: 0x20 }
  - { offsetInCU: 0x9D4F, offset: 0x3B3DE, size: 0x8, addend: 0x0, symName: __ZNSt3__125__independent_bits_engineINS_26linear_congruential_engineIjLj48271ELj0ELj2147483647EEEmEC2ERS2_m, symObjAddr: 0x5390, symBinAddr: 0x100015B00, symSize: 0x230 }
  - { offsetInCU: 0x9D95, offset: 0x3B424, size: 0x8, addend: 0x0, symName: __ZNSt3__125__independent_bits_engineINS_26linear_congruential_engineIjLj48271ELj0ELj2147483647EEEmE6__evalENS_17integral_constantIbLb1EEE, symObjAddr: 0x55C0, symBinAddr: 0x100015D30, symSize: 0x180 }
  - { offsetInCU: 0x9E51, offset: 0x3B4E0, size: 0x8, addend: 0x0, symName: __ZNSt3__126linear_congruential_engineIjLj48271ELj0ELj2147483647EEclB7v160006Ev, symObjAddr: 0x5740, symBinAddr: 0x100015EB0, symSize: 0x30 }
  - { offsetInCU: 0x9E76, offset: 0x3B505, size: 0x8, addend: 0x0, symName: __ZNSt3__126linear_congruential_engineIjLj48271ELj0ELj2147483647EE3minB7v160006Ev, symObjAddr: 0x5770, symBinAddr: 0x100015EE0, symSize: 0x10 }
  - { offsetInCU: 0x9E95, offset: 0x3B524, size: 0x8, addend: 0x0, symName: __ZNSt3__18__lce_taILy48271ELy0ELy2147483647ELy4294967295ELb1EE4nextB7v160006Ej, symObjAddr: 0x5780, symBinAddr: 0x100015EF0, symSize: 0x80 }
  - { offsetInCU: 0x9F0C, offset: 0x3B59B, size: 0x8, addend: 0x0, symName: __ZNSt3__124uniform_int_distributionIlE10param_typeC2Ell, symObjAddr: 0x5830, symBinAddr: 0x100015F70, symSize: 0x30 }
  - { offsetInCU: 0x9F51, offset: 0x3B5E0, size: 0x8, addend: 0x0, symName: __ZNSt3__16vectorI4CardNS_9allocatorIS1_EEE19__copy_assign_allocB7v160006ERKS4_, symObjAddr: 0x6110, symBinAddr: 0x100016040, symSize: 0x30 }
  - { offsetInCU: 0x9F85, offset: 0x3B614, size: 0x8, addend: 0x0, symName: __ZNSt3__16vectorI4CardNS_9allocatorIS1_EEE6assignIPS1_Li0EEEvT_S7_, symObjAddr: 0x6140, symBinAddr: 0x100016070, symSize: 0x160 }
  - { offsetInCU: 0xA022, offset: 0x3B6B1, size: 0x8, addend: 0x0, symName: __ZNSt3__16vectorI4CardNS_9allocatorIS1_EEE19__copy_assign_allocB7v160006ERKS4_NS_17integral_constantIbLb0EEE, symObjAddr: 0x62A0, symBinAddr: 0x1000161D0, symSize: 0x10 }
  - { offsetInCU: 0xA05D, offset: 0x3B6EC, size: 0x8, addend: 0x0, symName: __ZNSt3__16vectorI4CardNS_9allocatorIS1_EEE18__construct_at_endIPS1_Li0EEEvT_S7_m, symObjAddr: 0x6370, symBinAddr: 0x1000162A0, symSize: 0x90 }
  - { offsetInCU: 0x8490, offset: 0x43C51, size: 0x8, addend: 0x0, symName: _main, symObjAddr: 0x0, symBinAddr: 0x1000165C0, symSize: 0xB0 }
  - { offsetInCU: 0x860A, offset: 0x43DCB, size: 0x8, addend: 0x0, symName: __ZN9BlackJackD1Ev, symObjAddr: 0x100, symBinAddr: 0x100016670, symSize: 0x20 }
  - { offsetInCU: 0x8635, offset: 0x43DF6, size: 0x8, addend: 0x0, symName: __ZN9BlackJackD2Ev, symObjAddr: 0x120, symBinAddr: 0x100016690, symSize: 0x30 }
...
